******************************************************************************
               TMS320C6x Linker PC v7.3.4                      
******************************************************************************
>> Linked Tue Feb 17 16:10:22 2015

OUTPUT FILE NAME:   <crossCoreAdditionMemOpt.out>
ENTRY POINT SYMBOL: "_c_int00"  address: 00823c80


MEMORY CONFIGURATION

         name            origin    length      used     unused   attr    fill
----------------------  --------  ---------  --------  --------  ----  --------
  L2SRAM                00800000   00080000  00039f22  000460de  RW X
  MSMCSRAM              0c000000   00200000  000ffffd  00100003  RW X
  DDR3                  80000000   80000000  18000180  67fffe80  RW X


SEGMENT ALLOCATION MAP

run origin  load origin   length   init length attrs members
----------  ----------- ---------- ----------- ----- -------
00800000    00800000    000291c0   000291c0    r-x
  00800000    00800000    000291c0   000291c0    r-x .text
008291c0    008291c0    00009038   00000000    rw-
  008291c0    008291c0    00009038   00000000    rw- .far.1
00832200    00832200    000003a8   00000000    rw-
  00832200    00832200    000003a8   00000000    rw- .far.2
008325b0    008325b0    00000020   00000000    rw-
  008325b0    008325b0    00000020   00000000    rw- .far.3
008325d0    008325d0    00004266   00004266    r--
  008325d0    008325d0    00004266   00004266    r-- .const
00836840    00836840    00001578   00001578    rw-
  00836840    00836840    00001578   00001578    rw- .fardata.1
00837dc0    00837dc0    000001d8   000001d8    rw-
  00837dc0    00837dc0    000001d8   000001d8    rw- .fardata.2
00837fa0    00837fa0    00000018   00000018    rw-
  00837fa0    00837fa0    00000018   00000018    rw- .fardata.3
00837fc0    00837fc0    00000048   00000048    rw-
  00837fc0    00837fc0    00000048   00000048    rw- .fardata.4
00838010    00838010    00000008   00000008    rw-
  00838010    00838010    00000008   00000008    rw- .fardata.5
00838020    00838020    00000004   00000004    rw-
  00838020    00838020    00000004   00000004    rw- .fardata.6
00838030    00838030    00000004   00000004    rw-
  00838030    00838030    00000004   00000004    rw- .fardata.7
00838040    00838040    00000004   00000004    rw-
  00838040    00838040    00000004   00000004    rw- .fardata.8
00838050    00838050    00000004   00000004    rw-
  00838050    00838050    00000004   00000004    rw- .fardata.9
00838060    00838060    00000004   00000004    rw-
  00838060    00838060    00000004   00000004    rw- .fardata.10
00838070    00838070    00000004   00000004    rw-
  00838070    00838070    00000004   00000004    rw- .fardata.11
00838080    00838080    00000004   00000004    rw-
  00838080    00838080    00000004   00000004    rw- .fardata.12
00838090    00838090    00000004   00000004    rw-
  00838090    00838090    00000004   00000004    rw- .fardata.13
008380a0    008380a0    00000004   00000004    rw-
  008380a0    008380a0    00000004   00000004    rw- .fardata.14
008380b0    008380b0    00000004   00000004    rw-
  008380b0    008380b0    00000004   00000004    rw- .fardata.15
008380c0    008380c0    00000004   00000004    rw-
  008380c0    008380c0    00000004   00000004    rw- .fardata.16
008380c8    008380c8    00001124   00000000    rw-
  008380c8    008380c8    00001000   00000000    rw- .stack
  008390c8    008390c8    00000120   00000000    rw- .cio
  008391e8    008391e8    00000004   00000000    rw- .bss
008391ec    008391ec    00000004   00000004    rw-
  008391ec    008391ec    00000004   00000004    rw- .neardata
008391f0    008391f0    000000e0   000000e0    r--
  008391f0    008391f0    000000e0   000000e0    r-- .rodata
008392d0    008392d0    00000030   00000030    r--
  008392d0    008392d0    00000030   00000030    r-- .switch
00839400    00839400    00000ce0   00000ce0    r-x
  00839400    00839400    00000200   00000200    r-x .vecs
  00839600    00839600    00000ae0   00000ae0    r-- .cinit
0c0ffffc    0c0ffffc    00000001   00000001    rw-
  0c0ffffc    0c0ffffc    00000001   00000001    rw- .MSMCSRAM
80000000    80000000    18000180   00000000    rw-
  80000000    80000000    18000180   00000000    rw- .mySharedMem


SECTION ALLOCATION MAP

 output                                  attributes/
section   page    origin      length       input sections
--------  ----  ----------  ----------   ----------------
.init_array 
*          0    00800000    00000000     UNINITIALIZED

xdc.meta   0    00800000    00000128     COPY SECTION
                  00800000    00000128     modelPreesm_pe66.oe66 (xdc.meta)

.text      0    00800000    000291c0     
                  00800000    000011c0     ipc.lib : Ipc.obj (.text:ti_sdo_ipc_GateMP_Instance_init__F)
                  008011c0    00000a60             : Ipc.obj (.text:ti_sdo_ipc_heaps_HeapMemMP_alloc__E)
                  00801c20    000009e0             : Ipc.obj (.text:ti_sdo_ipc_heaps_HeapMemMP_free__E)
                  00802600    000009a0             : Ipc.obj (.text:Ipc_attach)
                  00802fa0    000009a0     ti.targets.rts6000.ae66 : System.oe66 (.text:xdc_runtime_System_doPrint__I)
                  00803940    00000920     ipc.lib : Ipc.obj (.text:ti_sdo_ipc_transports_TransportShm_Instance_init__F)
                  00804260    000008a0             : Ipc.obj (.text:ti_sdo_ipc_ListMP_Instance_init__F)
                  00804b00    00000860             : Ipc.obj (.text:ti_sdo_ipc_GateMP_Instance_finalize__F)
                  00805360    00000840             : Ipc.obj (.text:MessageQ_put)
                  00805ba0    00000780             : Ipc.obj (.text:ti_sdo_ipc_heaps_HeapMemMP_Instance_init__F)
                  00806320    00000780     sysbios.lib : BIOS.obj (.text:ti_sysbios_family_c64p_Exception_handler__I)
                  00806aa0    00000700     ipc.lib : Ipc.obj (.text:Notify_registerEvent)
                  008071a0    000006c0             : Ipc.obj (.text:ti_sdo_ipc_nsremote_NameServerRemoteNotify_Instance_init__F)
                  00807860    000006a0             : Ipc.obj (.text:NameServer_add)
                  00807f00    00000660     sysbios.lib : BIOS.obj (.text:ti_sysbios_heaps_HeapMem_free__E)
                  00808560    00000620     ipc.lib : Ipc.obj (.text:Notify_sendEvent)
                  00808b80    00000620     sysbios.lib : BIOS.obj (.text:ti_sysbios_heaps_HeapMem_alloc__E)
                  008091a0    000005e0     ipc.lib : Ipc.obj (.text:Notify_registerEventSingle)
                  00809780    000005c0             : Ipc.obj (.text:ListMP_getHead)
                  00809d40    000005c0             : Ipc.obj (.text:Notify_unregisterEventSingle)
                  0080a300    000005c0     rts6600_elf.lib : divd.obj (.text:__c6xabi_divd)
                  0080a8c0    000005c0                     : _printfi.obj (.text:_getarg_diouxp)
                  0080ae80    000005c0     ipc.lib : Ipc.obj (.text:ti_sdo_ipc_SharedRegion_start__F)
                  0080b440    000005c0     sysbios.lib : BIOS.obj (.text:ti_sysbios_timers_timer64_Timer_Module_startup__F)
                  0080ba00    00000580     semaphore6678.obj (.text)
                  0080bf80    00000580     ipc.lib : Ipc.obj (.text:ti_sdo_ipc_nsremote_NameServerRemoteNotify_get__F)
                  0080c500    00000580             : Ipc.obj (.text:ti_sdo_ipc_transports_TransportShm_put__E)
                  0080ca80    00000560             : Ipc.obj (.text:NameServer_get)
                  0080cfe0    00000540             : Ipc.obj (.text:ti_sdo_ipc_Ipc_procSyncStart__I)
                  0080d520    000004e0             : Ipc.obj (.text:ti_sdo_ipc_notifyDrivers_NotifyDriverShm_Instance_init__F)
                  0080da00    000004a0             : Ipc.obj (.text:ti_sdo_ipc_gates_GatePeterson_Instance_init__F)
                  0080dea0    00000480     rts6600_elf.lib : _printfi.obj (.text:_setfield)
                  0080e320    00000460                     : _printfi.obj (.text:_printfi)
                  0080e780    00000460     ipc.lib : Ipc.obj (.text:ti_sdo_ipc_GateMP_setRegion0Reserved__F)
                  0080ebe0    00000460             : Ipc.obj (.text:ti_sdo_ipc_Ipc_procSyncFinish__I)
                  0080f040    00000440             : Ipc.obj (.text:ListMP_putTail)
                  0080f480    00000440             : Ipc.obj (.text:ti_sdo_ipc_heaps_HeapMemMP_getStats__E)
                  0080f8c0    00000440             : Ipc.obj (.text:ti_sdo_ipc_heaps_HeapMemMP_postInit__I)
                  0080fd00    00000400     Core7.obj (.text)
                  00810100    00000400     ipc.lib : Ipc.obj (.text:ti_sdo_ipc_Notify_Instance_init__F)
                  00810500    00000400     sysbios.lib : BIOS.obj (.text:ti_sysbios_knl_Semaphore_pend__E)
                  00810900    000003c0     ipc.lib : Ipc.obj (.text:ti_sdo_ipc_SharedRegion_reserveMemory__F)
                  00810cc0    000003c0     sysbios.lib : BIOS.obj (.text:ti_sysbios_knl_Task_setPri__E)
                  00811080    00000380     ipc.lib : Ipc.obj (.text:HeapMemMP_sharedMemReq)
                  00811400    00000360     communication.obj (.text)
                  00811760    00000340     ipc.lib : Ipc.obj (.text:GateMP_sharedMemReq)
                  00811aa0    00000340             : Ipc.obj (.text:ti_sdo_ipc_nsremote_NameServerRemoteNotify_swiFxn__I)
                  00811de0    00000300             : Ipc.obj (.text:GateMP_openByAddr)
                  008120e0    00000300     rts6600_elf.lib : fputs.obj (.text:fputs)
                  008123e0    00000300     ipc.lib : Ipc.obj (.text:ti_sdo_ipc_transports_TransportShm_openByAddr__F)
                  008126e0    00000300     sysbios.lib : BIOS.obj (.text:ti_sysbios_family_c64p_Hwi_dispatchC__I)
                  008129e0    000002e0     ipc.lib : Ipc.obj (.text:SharedRegion_getEntry)
                  00812cc0    000002e0             : Ipc.obj (.text:SharedRegion_getPtr)
                  00812fa0    000002e0     rts6600_elf.lib : _printfi.obj (.text:_pproc_fwp)
                  00813280    000002e0     sysbios.lib : BIOS.obj (.text:ti_sysbios_gates_GateMutexPri_enter__E)
                  00813560    000002e0                 : BIOS.obj (.text:ti_sysbios_knl_Task_Module_startup__F)
                  00813840    000002c0     rts6600_elf.lib : _printfi.obj (.text:_pproc_fge)
                  00813b00    000002c0     ipc.lib : Ipc.obj (.text:ti_sdo_ipc_notifyDrivers_NotifyDriverShm_isr__I)
                  00813dc0    000002a0             : Ipc.obj (.text:Ipc_start)
                  00814060    000002a0             : Ipc.obj (.text:NameServer_getLocal)
                  00814300    000002a0     rts6600_elf.lib : _printfi.obj (.text:fcvt)
                  008145a0    000002a0     sysbios.lib : BIOS.obj (.text:ti_sysbios_knl_Clock_workFunc__E)
                  00814840    000002a0                 : BIOS.obj (.text:ti_sysbios_knl_Task_sleep__E)
                  00814ae0    00000280     ipc.lib : Ipc.obj (.text:SharedRegion_getSRPtr)
                  00814d60    00000280     sysbios.lib : BIOS.obj (.text:deviceConfig$44)
                  00814fe0    00000280     rts6600_elf.lib : _printfi.obj (.text:ecvt)
                  00815260    00000280     ipc.lib : Ipc.obj (.text:ti_sdo_ipc_notifyDrivers_NotifyDriverShm_sharedMemReq__F)
                  008154e0    00000280     sysbios.lib : BIOS.obj (.text:ti_sysbios_knl_Clock_Instance_init__F)
                  00815760    00000280                 : BIOS.obj (.text:ti_sysbios_knl_Task_exit__E)
                  008159e0    00000280     ti.targets.rts6000.ae66 : Core-mem.oe66 (.text:xdc_runtime_Core_createObject__I)
                  00815c60    00000280                             : Error.oe66 (.text:xdc_runtime_Error_raiseX__F)
                  00815ee0    00000260     Core0.obj (.text)
                  00816140    00000260     ipc.lib : Ipc.obj (.text:ListMP_sharedMemReq)
                  008163a0    00000260             : Ipc.obj (.text:ti_sdo_ipc_ListMP_Instance_finalize__F)
                  00816600    00000260             : Ipc.obj (.text:ti_sdo_ipc_heaps_HeapMemMP_Instance_finalize__F)
                  00816860    00000260             : Ipc.obj (.text:ti_sdo_ipc_notifyDrivers_NotifyDriverShm_disableEvent__E)
                  00816ac0    00000260     ti.targets.rts6000.ae66 : Startup.oe66 (.text:xdc_runtime_Startup_startMods__I)
                  00816d20    00000260     modelPreesm_pe66.oe66 (.text:xdc_runtime_System_printfExtend__I)
                  00816f80    00000240     rts6600_elf.lib : imath64.obj (.text:__c6xabi_divull)
                  008171c0    00000240                     : _printfi.obj (.text:_pconv_e)
                  00817400    00000240                     : _printfi.obj (.text:_pproc_diouxp)
                  00817640    00000240     sysbios.lib : BIOS.obj (.text:ti_sysbios_family_c64p_Exception_internalHandler__I)
                  00817880    00000240                 : BIOS.obj (.text:ti_sysbios_knl_Semaphore_post__E)
                  00817ac0    00000220     rts6600_elf.lib : _printfi.obj (.text:_pproc_str)
                  00817ce0    00000220     sysbios.lib : BIOS.obj (.text:ti_sysbios_family_c64p_Hwi_reconfig__E)
                  00817f00    00000220                 : BIOS.obj (.text:ti_sysbios_knl_Swi_run__I)
                  00818120    00000220                 : BIOS.obj (.text:ti_sysbios_knl_Task_schedule__I)
                  00818340    00000220                 : BIOS.obj (.text:ti_sysbios_knl_Task_startup__E)
                  00818560    00000200     ipc.lib : Ipc.obj (.text:GateMP_enter)
                  00818760    00000200             : Ipc.obj (.text:GateMP_leave)
                  00818960    00000200             : Ipc.obj (.text:ListMP_openByAddr)
                  00818b60    00000200     rts6600_elf.lib : _printfi.obj (.text:_pconv_g)
                  00818d60    00000200     sysbios.lib : c64p_Hwi_disp_always.obj (.text:_ti_sysbios_family_c64p_Hwi_dispatchAlways)
                  00818f60    00000200                 : BIOS.obj (.text:block$56)
                  00819160    00000200     ipc.lib : Ipc.obj (.text:ti_sdo_ipc_family_c647x_MultiProcSetup_init__I)
                  00819360    00000200             : Ipc.obj (.text:ti_sdo_ipc_notifyDrivers_NotifyDriverShm_sendEvent__E)
                  00819560    00000200             : Ipc.obj (.text:ti_sdo_ipc_transports_TransportShm_Instance_finalize__F)
                  00819760    000001e0             : Ipc.obj (.text:GateMP_open)
                  00819940    000001e0     cache.obj (.text)
                  00819b20    000001e0     ipc.lib : Ipc.obj (.text:ti_sdo_ipc_GateMP_attach__F)
                  00819d00    000001e0             : Ipc.obj (.text:ti_sdo_ipc_GateMP_getFreeResource__I)
                  00819ee0    000001e0     sysbios.lib : BIOS.obj (.text:ti_sysbios_knl_Task_postInit__I)
                  0081a0c0    000001e0                 : BIOS.obj (.text:ti_sysbios_timers_timer64_Timer_getFreq__E)
                  0081a2a0    000001c0     ipc.lib : Ipc.obj (.text:HeapMemMP_openByAddr)
                  0081a460    000001c0     rts6600_elf.lib : _printfi.obj (.text:_mcpy)
                  0081a620    000001c0     ipc.lib : Ipc.obj (.text:ti_sdo_ipc_notifyDrivers_NotifyDriverShm_registerEvent__E)
                  0081a7e0    000001c0     sysbios.lib : BIOS.obj (.text:ti_sysbios_knl_Swi_Instance_init__F)
                  0081a9a0    000001c0                 : BIOS.obj (.text:ti_sysbios_knl_Task_checkStacks__E)
                  0081ab60    000001c0                 : BIOS.obj (.text:ti_sysbios_timers_timer64_Timer_setPeriodMicroSecs__E)
                  0081ad20    000001a0     rts6600_elf.lib : trgdrv.obj (.text:HOSTrename)
                  0081aec0    000001a0     ipc.lib : Ipc.obj (.text:SharedRegion_getCacheLineSize)
                  0081b060    000001a0             : Ipc.obj (.text:SharedRegion_getHeap)
                  0081b200    000001a0             : Ipc.obj (.text:SharedRegion_isCacheEnabled)
                  0081b3a0    000001a0     rts6600_elf.lib : imath40.obj (.text:__c6xabi_divul)
                  0081b540    000001a0     ipc.lib : Ipc.obj (.text:ti_sdo_ipc_GateMP_openRegion0Reserved__F)
                  0081b6e0    000001a0             : Ipc.obj (.text:ti_sdo_ipc_notifyDrivers_NotifyDriverShm_enableEvent__E)
                  0081b880    000001a0             : Ipc.obj (.text:ti_sdo_ipc_notifyDrivers_NotifyDriverShm_unregisterEvent__E)
                  0081ba20    000001a0             : Ipc.obj (.text:ti_sdo_ipc_nsremote_NameServerRemoteNotify_attach__E)
                  0081bbc0    000001a0     sysbios.lib : BIOS.obj (.text:ti_sysbios_gates_GateMutex_enter__E)
                  0081bd60    000001a0                 : BIOS.obj (.text:ti_sysbios_timers_timer64_Timer_start__E)
                  0081bf00    00000180     ipc.lib : Ipc.obj (.text:MultiProc_setLocalId)
                  0081c080    00000180             : Ipc.obj (.text:NameServer_getHandle)
                  0081c200    00000180             : Ipc.obj (.text:Notify_intLineRegistered)
                  0081c380    00000180     rts6600_elf.lib : copy_decompress_rle.obj (.text:__TI_decompress_rle_core)
                  0081c500    00000180                     : setvbuf.obj (.text:setvbuf)
                  0081c680    00000180     sysbios.lib : c64p_Exception_asm.obj (.text)
                  0081c800    00000180     ipc.lib : Ipc.obj (.text:ti_sdo_ipc_MessageQ_registerTransport__F)
                  0081c980    00000180             : Ipc.obj (.text:ti_sdo_ipc_Notify_Module_startup__F)
                  0081cb00    00000180             : Ipc.obj (.text:ti_sdo_ipc_gates_GatePeterson_enter__E)
                  0081cc80    00000180             : Ipc.obj (.text:ti_sdo_utils_NameServer_Module_startup__F)
                  0081ce00    00000180     sysbios.lib : BIOS.obj (.text:ti_sysbios_heaps_HeapMem_Instance_init__F)
                  0081cf80    00000180                 : BIOS.obj (.text:ti_sysbios_knl_Swi_schedule__I)
                  0081d100    00000180                 : BIOS.obj (.text:ti_sysbios_knl_Task_unblockI__E)
                  0081d280    00000180     ti.targets.rts6000.ae66 : Text.oe66 (.text:xdc_runtime_Text_putSite__F)
                  0081d400    00000160     ipc.lib : Ipc.obj (.text:ti_sdo_ipc_GateMP_createLocal__F)
                  0081d560    00000160             : Ipc.obj (.text:ti_sdo_ipc_MessageQ_unregisterTransport__F)
                  0081d6c0    00000160             : Ipc.obj (.text:ti_sdo_ipc_gates_GateHWSem_Instance_init__F)
                  0081d820    00000160             : Ipc.obj (.text:ti_sdo_ipc_transports_TransportShm_sharedMemReq__F)
                  0081d980    00000160             : Ipc.obj (.text:ti_sdo_utils_NameServer_isRegistered__E)
                  0081dae0    00000160             : Ipc.obj (.text:ti_sdo_utils_NameServer_registerRemoteDriver__E)
                  0081dc40    00000160             : Ipc.obj (.text:ti_sdo_utils_NameServer_unregisterRemoteDriver__E)
                  0081dda0    00000140             : Ipc.obj (.text:GateMP_close)
                  0081dee0    00000140             : Ipc.obj (.text:Notify_attach)
                  0081e020    00000140     boot.ae66 : autoinit.oe66 (.text:_auto_init_elf)
                  0081e160    00000140     rts6600_elf.lib : _printfi.obj (.text:_pproc_fflags)
                  0081e2a0    00000140                     : fputc.obj (.text:fputc)
                  0081e3e0    00000140                     : lowlev.obj (.text:getdevice)
                  0081e520    00000140     ipc.lib : Ipc.obj (.text:ti_sdo_ipc_Notify_exec__F)
                  0081e660    00000140     sysbios.lib : BIOS.obj (.text:ti_sysbios_family_c64p_Hwi_Module_startup__F)
                  0081e7a0    00000140                 : BIOS.obj (.text:ti_sysbios_family_c66_Cache_Module_startup__F)
                  0081e8e0    00000140                 : BIOS.obj (.text:ti_sysbios_gates_GateSwi_enter__E)
                  0081ea20    00000140                 : BIOS.obj (.text:ti_sysbios_knl_Clock_Instance_finalize__F)
                  0081eb60    00000140                 : BIOS.obj (.text:ti_sysbios_knl_Semaphore_Instance_init__F)
                  0081eca0    00000140                 : BIOS.obj (.text:ti_sysbios_knl_Swi_post__E)
                  0081ede0    00000140                 : BIOS.obj (.text:ti_sysbios_knl_Task_blockI__E)
                  0081ef20    00000140                 : BIOS.obj (.text:ti_sysbios_knl_Task_yield__E)
                  0081f060    00000120     rts6600_elf.lib : _printfi.obj (.text:_ltostr)
                  0081f180    00000120                     : _io_perm.obj (.text:_wrt_ok)
                  0081f2a0    00000120                     : fclose.obj (.text:fclose)
                  0081f3c0    00000120     generateMatrices.obj (.text)
                  0081f4e0    00000120     sysbios.lib : BIOS.obj (.text:rtsUnlock$0)
                  0081f600    00000120     ipc.lib : Ipc.obj (.text:ti_sdo_ipc_MessageQ_Module_startup__F)
                  0081f720    00000120             : Ipc.obj (.text:ti_sdo_ipc_family_c647x_Interrupt_intRegister__E)
                  0081f840    00000120             : Ipc.obj (.text:ti_sdo_ipc_nsremote_NameServerRemoteNotify_Instance_finalize__F)
                  0081f960    00000100     rts6600_elf.lib : trgdrv.obj (.text:HOSTlseek)
                  0081fa60    00000100                     : fflush.obj (.text:fflush)
                  0081fb60    00000100     sysbios.lib : BIOS.obj (.text:initDevice$44)
                  0081fc60    00000100     ipc.lib : Ipc.obj (.text:ti_sdo_ipc_GateMP_start__F)
                  0081fd60    00000100             : Ipc.obj (.text:ti_sdo_ipc_Notify_Instance_finalize__F)
                  0081fe60    00000100     modelPreesm_pe66.oe66 (.text:ti_sdo_ipc_Notify_Object__create__S)
                  0081ff60    00000100     ipc.lib : Ipc.obj (.text:ti_sdo_ipc_SharedRegion_attach__F)
                  00820060    00000100             : Ipc.obj (.text:ti_sdo_ipc_SharedRegion_clearReservedMemory__F)
                  00820160    00000100             : Ipc.obj (.text:ti_sdo_ipc_family_c647x_Interrupt_Module_startup__F)
                  00820260    00000100             : Ipc.obj (.text:ti_sdo_ipc_gates_GateHWSem_Module_startup__F)
                  00820360    00000100             : Ipc.obj (.text:ti_sdo_ipc_gates_GateMPSupportNull_enter__E)
                  00820460    00000100             : Ipc.obj (.text:ti_sdo_ipc_gates_GateMPSupportNull_leave__E)
                  00820560    00000100     modelPreesm_pe66.oe66 (.text:ti_sdo_ipc_gates_GatePeterson_Object__create__S)
                  00820660    00000100     modelPreesm_pe66.oe66 (.text:ti_sdo_ipc_nsremote_NameServerRemoteNotify_Object__create__S)
                  00820760    00000100     ipc.lib : Ipc.obj (.text:ti_sdo_ipc_transports_TransportShmSetup_attach__E)
                  00820860    00000100     modelPreesm_pe66.oe66 (.text:ti_sdo_ipc_transports_TransportShm_Object__create__S)
                  00820960    00000100     modelPreesm_pe66.oe66 (.text:ti_sysbios_family_c64p_Hwi_Object__create__S)
                  00820a60    00000100     sysbios.lib : BIOS.obj (.text:ti_sysbios_gates_GateMutexPri_leave__E)
                  00820b60    00000100                 : BIOS.obj (.text:ti_sysbios_knl_Clock_startI__E)
                  00820c60    00000100     modelPreesm_pe66.oe66 (.text:ti_sysbios_knl_Swi_Object__create__S)
                  00820d60    00000100     sysbios.lib : BIOS.obj (.text:ti_sysbios_knl_Swi_restoreHwi__E)
                  00820e60    00000100     ti.targets.rts6000.ae66 : Core-mem.oe66 (.text:xdc_runtime_Core_deleteObject__I)
                  00820f60    00000100                             : Startup.oe66 (.text:xdc_runtime_Startup_exec__F)
                  00821060    00000100                             : Text.oe66 (.text:xdc_runtime_Text_putMod__F)
                  00821160    00000100                             : Text.oe66 (.text:xdc_runtime_Text_visitRope2__I)
                  00821260    000000e0     rts6600_elf.lib : trgdrv.obj (.text:HOSTopen)
                  00821340    000000e0                     : _printfi.obj (.text:_div)
                  00821420    000000e0                     : atoi.obj (.text:atoi)
                  00821500    000000e0                     : lowlev.obj (.text:close)
                  008215e0    000000e0                     : copy_zero_init.obj (.text:decompress:ZI:__TI_zero_init)
                  008216c0    000000e0                     : exit.obj (.text:exit)
                  008217a0    000000e0                     : ltoa.obj (.text:ltoa)
                  00821880    000000e0     main.obj (.text)
                  00821960    000000e0     rts6600_elf.lib : memset.obj (.text:memset)
                  00821a40    000000e0     modelPreesm_pe66.oe66 (.text:ti_sdo_ipc_GateMP_Object__create__S)
                  00821b20    000000e0     modelPreesm_pe66.oe66 (.text:ti_sdo_ipc_ListMP_Object__create__S)
                  00821c00    000000e0     ipc.lib : Ipc.obj (.text:ti_sdo_ipc_family_c647x_NotifySetup_attach__E)
                  00821ce0    000000e0             : Ipc.obj (.text:ti_sdo_ipc_gates_GateHWSem_enter__E)
                  00821dc0    000000e0     modelPreesm_pe66.oe66 (.text:ti_sdo_ipc_heaps_HeapMemMP_Object__create__S)
                  00821ea0    000000e0     modelPreesm_pe66.oe66 (.text:ti_sdo_ipc_notifyDrivers_NotifyDriverShm_Object__create__S)
                  00821f80    000000e0     sysbios.lib : BIOS.obj (.text:ti_sysbios_family_c64p_Hwi_Instance_finalize__F)
                  00822060    000000e0                 : BIOS.obj (.text:ti_sysbios_family_c64p_Hwi_Instance_init__F)
                  00822140    000000e0                 : BIOS.obj (.text:ti_sysbios_knl_Clock_start__E)
                  00822220    000000e0                 : BIOS.obj (.text:ti_sysbios_timers_timer64_Timer_startup__E)
                  00822300    000000e0     ti.targets.rts6000.ae66 : Error.oe66 (.text:xdc_runtime_Error_print__F)
                  008223e0    000000e0                             : Memory.oe66 (.text:xdc_runtime_Memory_alloc__F)
                  008224c0    000000e0     modelPreesm_pe66.oe66 (.text:xdc_runtime_knl_GateThread_Object__create__S)
                  008225a0    000000c0     Core1.obj (.text)
                  00822660    000000c0     Core2.obj (.text)
                  00822720    000000c0     Core3.obj (.text)
                  008227e0    000000c0     Core4.obj (.text)
                  008228a0    000000c0     Core5.obj (.text)
                  00822960    000000c0     Core6.obj (.text)
                  00822a20    000000c0     rts6600_elf.lib : trgdrv.obj (.text:HOSTread)
                  00822ae0    000000c0                     : trgdrv.obj (.text:HOSTunlink)
                  00822ba0    000000c0                     : trgdrv.obj (.text:HOSTwrite)
                  00822c60    000000c0     ipc.lib : Ipc.obj (.text:HeapMemMP_create)
                  00822d20    000000c0             : Ipc.obj (.text:ListMP_create)
                  00822de0    000000c0     rts6600_elf.lib : dtor_list.obj (.text:__cxa_finalize)
                  00822ea0    000000c0                     : divu.obj (.text:__divu)
                  00822f60    000000c0                     : fopen.obj (.text:_cleanup)
                  00823020    000000c0                     : fflush.obj (.text:_doflush)
                  008230e0    000000c0                     : fseek.obj (.text:fseek)
                  008231a0    000000c0                     : lowlev.obj (.text:lseek)
                  00823260    000000c0     ipc.lib : Ipc.obj (.text:ti_sdo_ipc_GateMP_getRegion0ReservedSize__F)
                  00823320    000000c0             : Ipc.obj (.text:ti_sdo_ipc_Notify_execMany__I)
                  008233e0    000000c0             : Ipc.obj (.text:ti_sdo_ipc_family_c647x_Interrupt_intShmStub__I)
                  008234a0    000000c0     sysbios.lib : BIOS.obj (.text:ti_sysbios_BIOS_errorRaiseHook__I)
                  00823560    000000c0                 : BIOS.obj (.text:ti_sysbios_gates_GateAll_leave__E)
                  00823620    000000c0                 : BIOS.obj (.text:ti_sysbios_heaps_HeapMem_getStats__E)
                  008236e0    000000c0                 : BIOS.obj (.text:ti_sysbios_knl_Clock_logTick__E)
                  008237a0    000000c0                 : BIOS.obj (.text:ti_sysbios_knl_Swi_Instance_finalize__F)
                  00823860    000000c0                 : BIOS.obj (.text:ti_sysbios_timers_timer64_Timer_stop__E)
                  00823920    000000c0     rts6600_elf.lib : lowlev.obj (.text:write)
                  008239e0    000000c0     ti.targets.rts6000.ae66 : System.oe66 (.text:xdc_runtime_System_formatNum__I)
                  00823aa0    000000a0     rts6600_elf.lib : trgdrv.obj (.text:HOSTclose)
                  00823b40    000000a0                     : fltulld.obj (.text:__c6xabi_fltulld)
                  00823be0    000000a0                     : remu.obj (.text:__remu)
                  00823c80    000000a0     boot.ae66 : boot.oe66 (.text:_c_int00)
                  00823d20    000000a0     rts6600_elf.lib : _printfi.obj (.text:_ecpy)
                  00823dc0    000000a0                     : _printfi.obj (.text:_fcpy)
                  00823e60    000000a0                     : _printfi.obj (.text:_pconv_f)
                  00823f00    000000a0     sysbios.lib : c64p_Hwi_asm.obj (.text:_ti_sysbios_family_c64p_Hwi_plug__E)
                  00823fa0    000000a0     displayMatrix.obj (.text)
                  00824040    000000a0     rts6600_elf.lib : lowlev.obj (.text:finddevice)
                  008240e0    000000a0                     : memcpy64.obj (.text:memcpy)
                  00824180    000000a0     ipc.lib : Ipc.obj (.text:ti_sdo_ipc_family_c647x_Interrupt_intUnregister__E)
                  00824220    000000a0             : Ipc.obj (.text:ti_sdo_ipc_gates_GatePeterson_leave__E)
                  008242c0    000000a0             : Ipc.obj (.text:ti_sdo_ipc_notifyDrivers_NotifyDriverShm_Instance_finalize__F)
                  00824360    000000a0     sysbios.lib : BIOS.obj (.text:ti_sysbios_heaps_HeapMem_init__I)
                  00824400    000000a0     modelPreesm_pe66.oe66 (.text:ti_sysbios_knl_Clock_Object__create__S)
                  008244a0    000000a0     ti.targets.rts6000.ae66 : Assert.oe66 (.text:xdc_runtime_Assert_raise__I)
                  00824540    00000080     ipc.lib : Ipc.obj (.text:GateMP_create)
                  008245c0    00000080     rts6600_elf.lib : dtor_list.obj (.text:_Z11__TI_atexitPFYvPvES_S_)
                  00824640    00000080                     : fixdu.obj (.text:__c6xabi_fixdu)
                  008246c0    00000080                     : llshift.obj (.text:__c6xabi_llshl)
                  00824740    00000080     sysbios.lib : c62_TaskSupport_asm.obj (.text:_ti_sysbios_family_c62_TaskSupport_swap__E)
                  008247c0    00000080     addMatrices.obj (.text)
                  00824840    00000080     modelPreesm_pe66.oe66 (.text:malloc)
                  008248c0    00000080     rts6600_elf.lib : printf.obj (.text:printf)
                  00824940    00000080                     : trgmsg.obj (.text:readmsg)
                  008249c0    00000080     modelPreesm_pe66.oe66 (.text:ti_sdo_ipc_gates_GateHWSem_Object__create__S)
                  00824a40    00000080     modelPreesm_pe66.oe66 (.text:ti_sdo_ipc_gates_GateMPSupportNull_Object__create__S)
                  00824ac0    00000080     ipc.lib : Ipc.obj (.text:ti_sdo_ipc_nsremote_NameServerRemoteNotify_detach__E)
                  00824b40    00000080             : Ipc.obj (.text:ti_sdo_ipc_transports_TransportShm_swiFxn__I)
                  00824bc0    00000080     modelPreesm_pe66.oe66 (.text:ti_sdo_utils_List_Object__create__S)
                  00824c40    00000080     modelPreesm_pe66.oe66 (.text:ti_sysbios_BIOS_exitFunc__I)
                  00824cc0    00000080     sysbios.lib : BIOS.obj (.text:ti_sysbios_BIOS_exit__E)
                  00824d40    00000080                 : BIOS.obj (.text:ti_sysbios_family_c62_TaskSupport_start__E)
                  00824dc0    00000080                 : BIOS.obj (.text:ti_sysbios_family_c64p_Exception_Module_startup__F)
                  00824e40    00000080                 : BIOS.obj (.text:ti_sysbios_family_c64p_Hwi_eventMap__E)
                  00824ec0    00000080                 : BIOS.obj (.text:ti_sysbios_family_c66_Cache_invL1pAll__E)
                  00824f40    00000080     modelPreesm_pe66.oe66 (.text:ti_sysbios_gates_GateAll_Object__create__S)
                  00824fc0    00000080     modelPreesm_pe66.oe66 (.text:ti_sysbios_gates_GateHwi_Object__create__S)
                  00825040    00000080     modelPreesm_pe66.oe66 (.text:ti_sysbios_gates_GateMutexPri_Object__create__S)
                  008250c0    00000080     modelPreesm_pe66.oe66 (.text:ti_sysbios_gates_GateMutex_Object__create__S)
                  00825140    00000080     modelPreesm_pe66.oe66 (.text:ti_sysbios_gates_GateSwi_Object__create__S)
                  008251c0    00000080     sysbios.lib : BIOS.obj (.text:ti_sysbios_gates_GateSwi_leave__E)
                  00825240    00000080                 : BIOS.obj (.text:ti_sysbios_hal_Hwi_checkStack:ti_sysbios_hal_Hwi_checkStack)
                  008252c0    00000080     modelPreesm_pe66.oe66 (.text:ti_sysbios_heaps_HeapMem_Object__create__S)
                  00825340    00000080     sysbios.lib : BIOS.obj (.text:ti_sysbios_knl_Clock_Module_startup__F)
                  008253c0    00000080     modelPreesm_pe66.oe66 (.text:ti_sysbios_knl_Clock_doTick__I)
                  00825440    00000080     sysbios.lib : BIOS.obj (.text:ti_sysbios_knl_Clock_getTicks__E)
                  008254c0    00000080                 : BIOS.obj (.text:ti_sysbios_knl_Idle_loop__E)
                  00825540    00000080     modelPreesm_pe66.oe66 (.text:ti_sysbios_knl_Queue_Object__create__S)
                  008255c0    00000080     modelPreesm_pe66.oe66 (.text:ti_sysbios_knl_Semaphore_Object__create__S)
                  00825640    00000080     sysbios.lib : BIOS.obj (.text:ti_sysbios_knl_Semaphore_pendTimeout__I)
                  008256c0    00000080                 : BIOS.obj (.text:ti_sysbios_knl_Swi_startup__E)
                  00825740    00000080                 : BIOS.obj (.text:ti_sysbios_knl_Task_restore__E)
                  008257c0    00000080                 : BIOS.obj (.text:ti_sysbios_timers_timer64_Timer_getCount__E)
                  00825840    00000080                 : BIOS.obj (.text:ti_sysbios_timers_timer64_Timer_getPeriod__E)
                  008258c0    00000080     modelPreesm_pe66.oe66 (.text:ti_sysbios_xdcruntime_GateThreadSupport_Object__create__S)
                  00825940    00000080     rts6600_elf.lib : lowlev.obj (.text:unlink)
                  008259c0    00000080     ti.targets.rts6000.ae66 : Core-label.oe66 (.text:xdc_runtime_Core_assignLabel__I)
                  00825a40    00000080                             : Core-params.oe66 (.text:xdc_runtime_Core_assignParams__I)
                  00825ac0    00000080                             : System.oe66 (.text:xdc_runtime_System_atexit__F)
                  00825b40    00000080                             : System.oe66 (.text:xdc_runtime_System_rtsExit__I)
                  00825bc0    00000080                             : Text.oe66 (.text:xdc_runtime_Text_printVisFxn__I)
                  00825c40    00000080                             : Text.oe66 (.text:xdc_runtime_Text_xprintf__I)
                  00825cc0    00000060     ipc.lib : Ipc.obj (.text:GateMP_Params_init)
                  00825d20    00000060             : Ipc.obj (.text:HeapMemMP_Params_init)
                  00825d80    00000060     rts6600_elf.lib : frcmpyd_div.obj (.text:__c6xabi_frcmpyd_div)
                  00825de0    00000060                     : llshift.obj (.text:__c6xabi_llshru)
                  00825e40    00000060                     : imath64.obj (.text:_subcull)
                  00825ea0    00000060                     : memccpy.obj (.text:memccpy)
                  00825f00    00000060     modelPreesm_pe66.oe66 (.text:ti_sdo_ipc_GateMP_Object__delete__S)
                  00825f60    00000060     modelPreesm_pe66.oe66 (.text:ti_sdo_ipc_ListMP_Object__delete__S)
                  00825fc0    00000060     ipc.lib : Ipc.obj (.text:ti_sdo_ipc_family_c647x_NotifySetup_sharedMemReq__E)
                  00826020    00000060     modelPreesm_pe66.oe66 (.text:ti_sdo_ipc_gates_GateHWSem_Object__delete__S)
                  00826080    00000060     ipc.lib : Ipc.obj (.text:ti_sdo_ipc_gates_GateHWSem_leave__E)
                  008260e0    00000060     modelPreesm_pe66.oe66 (.text:ti_sdo_ipc_gates_GateMPSupportNull_Object__delete__S)
                  00826140    00000060     ipc.lib : Ipc.obj (.text:ti_sdo_ipc_gates_GatePeterson_Instance_finalize__F)
                  008261a0    00000060     modelPreesm_pe66.oe66 (.text:ti_sdo_ipc_gates_GatePeterson_Object__delete__S)
                  00826200    00000060     ipc.lib : Ipc.obj (.text:ti_sdo_ipc_gates_GatePeterson_sharedMemReq__E)
                  00826260    00000060     modelPreesm_pe66.oe66 (.text:ti_sdo_ipc_heaps_HeapMemMP_Object__delete__S)
                  008262c0    00000060     modelPreesm_pe66.oe66 (.text:ti_sdo_ipc_notifyDrivers_NotifyDriverShm_Object__delete__S)
                  00826320    00000060     ipc.lib : Ipc.obj (.text:ti_sdo_ipc_notifyDrivers_NotifyDriverShm_setNotifyHandle__E)
                  00826380    00000060     modelPreesm_pe66.oe66 (.text:ti_sdo_ipc_nsremote_NameServerRemoteNotify_Object__delete__S)
                  008263e0    00000060     ipc.lib : Ipc.obj (.text:ti_sdo_ipc_transports_TransportShmSetup_sharedMemReq__E)
                  00826440    00000060     modelPreesm_pe66.oe66 (.text:ti_sdo_ipc_transports_TransportShm_Object__delete__S)
                  008264a0    00000060     sysbios.lib : BIOS.obj (.text:ti_sysbios_BIOS_registerRTSLock__I)
                  00826500    00000060     modelPreesm_pe66.oe66 (.text:ti_sysbios_family_c64p_Hwi_Object__delete__S)
                  00826560    00000060     modelPreesm_pe66.oe66 (.text:ti_sysbios_gates_GateAll_Object__delete__S)
                  008265c0    00000060     sysbios.lib : BIOS.obj (.text:ti_sysbios_gates_GateAll_enter__E)
                  00826620    00000060     modelPreesm_pe66.oe66 (.text:ti_sysbios_gates_GateHwi_Object__delete__S)
                  00826680    00000060     modelPreesm_pe66.oe66 (.text:ti_sysbios_gates_GateMutexPri_Object__delete__S)
                  008266e0    00000060     sysbios.lib : BIOS.obj (.text:ti_sysbios_gates_GateMutex_Instance_init__F)
                  00826740    00000060     modelPreesm_pe66.oe66 (.text:ti_sysbios_gates_GateMutex_Object__delete__S)
                  008267a0    00000060     modelPreesm_pe66.oe66 (.text:ti_sysbios_gates_GateSwi_Object__delete__S)
                  00826800    00000060     sysbios.lib : BIOS.obj (.text:ti_sysbios_hal_Hwi_initStack:ti_sysbios_hal_Hwi_initStack)
                  00826860    00000060     modelPreesm_pe66.oe66 (.text:ti_sysbios_heaps_HeapMem_Object__delete__S)
                  008268c0    00000060     sysbios.lib : BIOS.obj (.text:ti_sysbios_knl_Swi_Module_startup__F)
                  00826920    00000060                 : BIOS.obj (.text:ti_sysbios_knl_Task_allBlockedFunction__I)
                  00826980    00000060                 : BIOS.obj (.text:ti_sysbios_knl_Task_enter__I)
                  008269e0    00000060     modelPreesm_pe66.oe66 (.text:ti_sysbios_xdcruntime_GateThreadSupport_Object__delete__S)
                  00826a40    00000060     rts6600_elf.lib : trgmsg.obj (.text:writemsg)
                  00826aa0    00000060     modelPreesm_pe66.oe66 (.text:xdc_runtime_GateNull_Object__create__S)
                  00826b00    00000060     modelPreesm_pe66.oe66 (.text:xdc_runtime_GateNull_Object__delete__S)
                  00826b60    00000060     ti.targets.rts6000.ae66 : Memory.oe66 (.text:xdc_runtime_Memory_calloc__F)
                  00826bc0    00000060                             : Memory.oe66 (.text:xdc_runtime_Memory_valloc__F)
                  00826c20    00000060                             : SysStd.oe66 (.text:xdc_runtime_SysStd_abort__F)
                  00826c80    00000060                             : System.oe66 (.text:xdc_runtime_System_avprintf__F)
                  00826ce0    00000060                             : System.oe66 (.text:xdc_runtime_System_vprintf__F)
                  00826d40    00000060                             : Text.oe66 (.text:xdc_runtime_Text_cordText__F)
                  00826da0    00000060     modelPreesm_pe66.oe66 (.text:xdc_runtime_knl_GateThread_Object__delete__S)
                  00826e00    00000040     rts6600_elf.lib : isinf.obj (.text:__c6xabi_isinf)
                  00826e40    00000040                     : _printfi.obj (.text:__c6xabi_isnan)
                  00826e80    00000040                     : args_main.obj (.text:_args_main)
                  00826ec0    00000040     sysbios.lib : c62_TaskSupport_asm.obj (.text:_ti_sysbios_family_c62_TaskSupport_buildTaskStack)
                  00826f00    00000040                 : c64p_Hwi_asm_switch.obj (.text:_ti_sysbios_family_xxx_Hwi_switchToIsrStack)
                  00826f40    00000040     modelPreesm_pe66.oe66 (.text:free)
                  00826f80    00000040     sysbios.lib : BIOS.obj (.text:rtsLock$0)
                  00826fc0    00000040     ipc.lib : Ipc.obj (.text:ti_sdo_ipc_family_c647x_Interrupt_intClear__E)
                  00827000    00000040             : Ipc.obj (.text:ti_sdo_ipc_family_c647x_Interrupt_intSend__E)
                  00827040    00000040     modelPreesm_pe66.oe66 (.text:ti_sdo_ipc_gates_GateHWSem_Handle__label__S)
                  00827080    00000040     modelPreesm_pe66.oe66 (.text:ti_sdo_ipc_gates_GateMPSupportNull_Handle__label__S)
                  008270c0    00000040     modelPreesm_pe66.oe66 (.text:ti_sdo_ipc_gates_GatePeterson_Handle__label__S)
                  00827100    00000040     modelPreesm_pe66.oe66 (.text:ti_sdo_ipc_heaps_HeapMemMP_Handle__label__S)
                  00827140    00000040     modelPreesm_pe66.oe66 (.text:ti_sdo_ipc_notifyDrivers_NotifyDriverShm_Handle__label__S)
                  00827180    00000040     ipc.lib : Ipc.obj (.text:ti_sdo_ipc_notifyDrivers_NotifyDriverShm_disable__E)
                  008271c0    00000040             : Ipc.obj (.text:ti_sdo_ipc_notifyDrivers_NotifyDriverShm_enable__E)
                  00827200    00000040     modelPreesm_pe66.oe66 (.text:ti_sdo_ipc_nsremote_NameServerRemoteNotify_Handle__label__S)
                  00827240    00000040     ipc.lib : Ipc.obj (.text:ti_sdo_ipc_nsremote_NameServerRemoteNotify_sharedMemReq__E)
                  00827280    00000040     modelPreesm_pe66.oe66 (.text:ti_sdo_ipc_transports_TransportShm_Handle__label__S)
                  008272c0    00000040     modelPreesm_pe66.oe66 (.text:ti_sdo_utils_NameServer_Module__startupDone__F)
                  00827300    00000040     modelPreesm_pe66.oe66 (.text:ti_sdo_utils_NameServer_Object__get__S)
                  00827340    00000040     modelPreesm_pe66.oe66 (.text:ti_sysbios_BIOS_startFunc__I)
                  00827380    00000040     sysbios.lib : BIOS.obj (.text:ti_sysbios_BIOS_start__E)
                  008273c0    00000040     modelPreesm_pe66.oe66 (.text:ti_sysbios_family_c64p_Hwi_Module__startupDone__F)
                  00827400    00000040     sysbios.lib : BIOS.obj (.text:ti_sysbios_family_c64p_Hwi_disableInterrupt__E)
                  00827440    00000040                 : BIOS.obj (.text:ti_sysbios_family_c64p_Hwi_enableInterrupt__E)
                  00827480    00000040     modelPreesm_pe66.oe66 (.text:ti_sysbios_gates_GateAll_Handle__label__S)
                  008274c0    00000040     modelPreesm_pe66.oe66 (.text:ti_sysbios_gates_GateHwi_Handle__label__S)
                  00827500    00000040     modelPreesm_pe66.oe66 (.text:ti_sysbios_gates_GateMutexPri_Handle__label__S)
                  00827540    00000040     sysbios.lib : BIOS.obj (.text:ti_sysbios_gates_GateMutexPri_Instance_finalize__F)
                  00827580    00000040                 : BIOS.obj (.text:ti_sysbios_gates_GateMutexPri_Instance_init__F)
                  008275c0    00000040     modelPreesm_pe66.oe66 (.text:ti_sysbios_gates_GateMutexPri_Object__destruct__S)
                  00827600    00000040     modelPreesm_pe66.oe66 (.text:ti_sysbios_gates_GateMutex_Handle__label__S)
                  00827640    00000040     sysbios.lib : BIOS.obj (.text:ti_sysbios_gates_GateMutex_Instance_finalize__F)
                  00827680    00000040                 : BIOS.obj (.text:ti_sysbios_gates_GateMutex_leave__E)
                  008276c0    00000040     modelPreesm_pe66.oe66 (.text:ti_sysbios_gates_GateSwi_Handle__label__S)
                  00827700    00000040     modelPreesm_pe66.oe66 (.text:ti_sysbios_hal_Timer_Module__startupDone__F)
                  00827740    00000040     modelPreesm_pe66.oe66 (.text:ti_sysbios_heaps_HeapMem_Handle__label__S)
                  00827780    00000040     modelPreesm_pe66.oe66 (.text:ti_sysbios_heaps_HeapMem_Object__get__S)
                  008277c0    00000040     modelPreesm_pe66.oe66 (.text:ti_sysbios_knl_Clock_Object__destruct__S)
                  00827800    00000040     sysbios.lib : BIOS.obj (.text:ti_sysbios_knl_Semaphore_Instance_finalize__F)
                  00827840    00000040     modelPreesm_pe66.oe66 (.text:ti_sysbios_knl_Semaphore_Object__destruct__S)
                  00827880    00000040     modelPreesm_pe66.oe66 (.text:ti_sysbios_knl_Swi_Object__destruct__S)
                  008278c0    00000040     modelPreesm_pe66.oe66 (.text:ti_sysbios_knl_Swi_Object__get__S)
                  00827900    00000040     modelPreesm_pe66.oe66 (.text:ti_sysbios_knl_Task_Object__get__S)
                  00827940    00000040     sysbios.lib : BIOS.obj (.text:ti_sysbios_knl_Task_sleepTimeout__I)
                  00827980    00000040     modelPreesm_pe66.oe66 (.text:ti_sysbios_timers_timer64_Timer_Module__startupDone__F)
                  008279c0    00000040     sysbios.lib : BIOS.obj (.text:ti_sysbios_xdcruntime_GateThreadSupport_Instance_finalize__F)
                  00827a00    00000040                 : BIOS.obj (.text:ti_sysbios_xdcruntime_GateThreadSupport_Instance_init__F)
                  00827a40    00000040                 : BIOS.obj (.text:ti_sysbios_xdcruntime_GateThreadSupport_enter__F)
                  00827a80    00000040                 : BIOS.obj (.text:ti_sysbios_xdcruntime_GateThreadSupport_leave__F)
                  00827ac0    00000040     ti.targets.rts6000.ae66 : Error.oe66 (.text:xdc_runtime_Error_check__F)
                  00827b00    00000040                             : Error.oe66 (.text:xdc_runtime_Error_init__F)
                  00827b40    00000040     modelPreesm_pe66.oe66 (.text:xdc_runtime_GateNull_Handle__label__S)
                  00827b80    00000040     ti.targets.rts6000.ae66 : Gate.oe66 (.text:xdc_runtime_Gate_leaveSystem__F)
                  00827bc0    00000040                             : Memory.oe66 (.text:xdc_runtime_Memory_free__F)
                  00827c00    00000040                             : Registry.oe66 (.text:xdc_runtime_Registry_findById__F)
                  00827c40    00000040                             : System.oe66 (.text:xdc_runtime_System_abort__F)
                  00827c80    00000040     modelPreesm_pe66.oe66 (.text:xdc_runtime_System_aprintf__E)
                  00827cc0    00000040     modelPreesm_pe66.oe66 (.text:xdc_runtime_System_printf__E)
                  00827d00    00000040     ti.targets.rts6000.ae66 : Text.oe66 (.text:xdc_runtime_Text_ropeText__F)
                  00827d40    00000040     modelPreesm_pe66.oe66 (.text:xdc_runtime_knl_GateThread_Handle__label__S)
                  00827d80    00000040     ti.targets.rts6000.ae66 : GateThread.oe66 (.text:xdc_runtime_knl_GateThread_Instance_finalize__F)
                  00827dc0    00000040                             : GateThread.oe66 (.text:xdc_runtime_knl_GateThread_Instance_init__F)
                  00827e00    00000020     ipc.lib : Ipc.obj (.text:GateMP_delete)
                  00827e20    00000020             : Ipc.obj (.text:MultiProc_self)
                  00827e40    00000020     rts6600_elf.lib : negll.obj (.text:__c6xabi_negll)
                  00827e60    00000020                     : dtor_list.obj (.text:__cxa_atexit)
                  00827e80    00000020                     : dtor_list.obj (.text:__cxa_ia64_exit)
                  00827ea0    00000020     ti.targets.rts6000.ae66 : xdc_noinit.oe66 (.text:__xdc__init)
                  00827ec0    00000020     rts6600_elf.lib : _lock.obj (.text:_nop)
                  00827ee0    00000020                     : printf.obj (.text:_outc)
                  00827f00    00000020                     : printf.obj (.text:_outs)
                  00827f20    00000020                     : _lock.obj (.text:_register_lock)
                  00827f40    00000020                     : _lock.obj (.text:_register_unlock)
                  00827f60    00000020     sysbios.lib : c62_TaskSupport_asm.obj (.text:_ti_sysbios_family_c62_TaskSupport_glue)
                  00827f80    00000020                 : c64p_Hwi_asm_switch.obj (.text:_ti_sysbios_family_xxx_Hwi_switchToTaskStack)
                  00827fa0    00000020     rts6600_elf.lib : exit.obj (.text:abort)
                  00827fc0    00000020                     : dtor_list.obj (.text:atexit)
                  00827fe0    00000020                     : copy_decompress_none.obj (.text:decompress:none:__TI_decompress_none)
                  00828000    00000020                     : copy_decompress_rle.obj (.text:decompress:rle24:__TI_decompress_rle24)
                  00828020    00000020     sysbios.lib : BIOS.obj (.text:nullFunc$0)
                  00828040    00000020     rts6600_elf.lib : fputc.obj (.text:putc)
                  00828060    00000020                     : fputc.obj (.text:putchar)
                  00828080    00000020     modelPreesm_pe66.oe66 (.text:ti_sdo_ipc_GateMP_Params__init__S)
                  008280a0    00000020     modelPreesm_pe66.oe66 (.text:ti_sdo_ipc_GateMP_RemoteCustom1Proxy_Object__create__S)
                  008280c0    00000020     modelPreesm_pe66.oe66 (.text:ti_sdo_ipc_GateMP_RemoteCustom1Proxy_Object__delete__S)
                  008280e0    00000020     modelPreesm_pe66.oe66 (.text:ti_sdo_ipc_GateMP_RemoteCustom1Proxy_Params__init__S)
                  00828100    00000020     modelPreesm_pe66.oe66 (.text:ti_sdo_ipc_GateMP_RemoteCustom1Proxy_Proxy__abstract__S)
                  00828120    00000020     modelPreesm_pe66.oe66 (.text:ti_sdo_ipc_GateMP_RemoteCustom1Proxy_Proxy__delegate__S)
                  00828140    00000020     modelPreesm_pe66.oe66 (.text:ti_sdo_ipc_GateMP_RemoteCustom2Proxy_Object__create__S)
                  00828160    00000020     modelPreesm_pe66.oe66 (.text:ti_sdo_ipc_GateMP_RemoteCustom2Proxy_Object__delete__S)
                  00828180    00000020     modelPreesm_pe66.oe66 (.text:ti_sdo_ipc_GateMP_RemoteCustom2Proxy_Params__init__S)
                  008281a0    00000020     modelPreesm_pe66.oe66 (.text:ti_sdo_ipc_GateMP_RemoteCustom2Proxy_Proxy__abstract__S)
                  008281c0    00000020     modelPreesm_pe66.oe66 (.text:ti_sdo_ipc_GateMP_RemoteCustom2Proxy_Proxy__delegate__S)
                  008281e0    00000020     modelPreesm_pe66.oe66 (.text:ti_sdo_ipc_GateMP_RemoteSystemProxy_Object__create__S)
                  00828200    00000020     modelPreesm_pe66.oe66 (.text:ti_sdo_ipc_GateMP_RemoteSystemProxy_Object__delete__S)
                  00828220    00000020     modelPreesm_pe66.oe66 (.text:ti_sdo_ipc_GateMP_RemoteSystemProxy_Params__init__S)
                  00828240    00000020     modelPreesm_pe66.oe66 (.text:ti_sdo_ipc_GateMP_RemoteSystemProxy_Proxy__abstract__S)
                  00828260    00000020     modelPreesm_pe66.oe66 (.text:ti_sdo_ipc_GateMP_RemoteSystemProxy_Proxy__delegate__S)
                  00828280    00000020     ipc.lib : Ipc.obj (.text:ti_sdo_ipc_GateMP_getSharedAddr__F)
                  008282a0    00000020     modelPreesm_pe66.oe66 (.text:ti_sdo_ipc_ListMP_Params__init__S)
                  008282c0    00000020     modelPreesm_pe66.oe66 (.text:ti_sdo_ipc_MessageQ_Object__get__S)
                  008282e0    00000020     modelPreesm_pe66.oe66 (.text:ti_sdo_ipc_Notify_Module_GateProxy_enter__E)
                  00828300    00000020     modelPreesm_pe66.oe66 (.text:ti_sdo_ipc_Notify_Module_GateProxy_leave__E)
                  00828320    00000020     ipc.lib : Ipc.obj (.text:ti_sdo_ipc_family_c647x_Interrupt_intDisable__E)
                  00828340    00000020             : Ipc.obj (.text:ti_sdo_ipc_family_c647x_Interrupt_intEnable__E)
                  00828360    00000020             : Ipc.obj (.text:ti_sdo_ipc_family_c647x_NotifySetup_numIntLines__E)
                  00828380    00000020     modelPreesm_pe66.oe66 (.text:ti_sdo_ipc_gates_GateHWSem_Params__init__S)
                  008283a0    00000020     ipc.lib : Ipc.obj (.text:ti_sdo_ipc_gates_GateHWSem_getReservedMask__E)
                  008283c0    00000020             : Ipc.obj (.text:ti_sdo_ipc_gates_GateHWSem_query__F)
                  008283e0    00000020             : Ipc.obj (.text:ti_sdo_ipc_gates_GateHWSem_sharedMemReq__E)
                  00828400    00000020             : Ipc.obj (.text:ti_sdo_ipc_gates_GateMPSupportNull_Instance_init__F)
                  00828420    00000020     modelPreesm_pe66.oe66 (.text:ti_sdo_ipc_gates_GateMPSupportNull_Params__init__S)
                  00828440    00000020     ipc.lib : Ipc.obj (.text:ti_sdo_ipc_gates_GateMPSupportNull_getReservedMask__E)
                  00828460    00000020             : Ipc.obj (.text:ti_sdo_ipc_gates_GateMPSupportNull_query__F)
                  00828480    00000020             : Ipc.obj (.text:ti_sdo_ipc_gates_GateMPSupportNull_sharedMemReq__E)
                  008284a0    00000020     modelPreesm_pe66.oe66 (.text:ti_sdo_ipc_gates_GatePeterson_Params__init__S)
                  008284c0    00000020     ipc.lib : Ipc.obj (.text:ti_sdo_ipc_gates_GatePeterson_getReservedMask__E)
                  008284e0    00000020             : Ipc.obj (.text:ti_sdo_ipc_gates_GatePeterson_query__F)
                  00828500    00000020     modelPreesm_pe66.oe66 (.text:ti_sdo_ipc_heaps_HeapMemMP_Params__init__S)
                  00828520    00000020     ipc.lib : Ipc.obj (.text:ti_sdo_ipc_heaps_HeapMemMP_isBlocking__F)
                  00828540    00000020     modelPreesm_pe66.oe66 (.text:ti_sdo_ipc_notifyDrivers_NotifyDriverShm_Params__init__S)
                  00828560    00000020     modelPreesm_pe66.oe66 (.text:ti_sdo_ipc_nsremote_NameServerRemoteNotify_Object__first__S)
                  00828580    00000020     modelPreesm_pe66.oe66 (.text:ti_sdo_ipc_nsremote_NameServerRemoteNotify_Object__next__S)
                  008285a0    00000020     modelPreesm_pe66.oe66 (.text:ti_sdo_ipc_nsremote_NameServerRemoteNotify_Params__init__S)
                  008285c0    00000020     ipc.lib : Ipc.obj (.text:ti_sdo_ipc_nsremote_NameServerRemoteNotify_cbFxn__I)
                  008285e0    00000020             : Ipc.obj (.text:ti_sdo_ipc_transports_TransportShmSetup_isRegistered__E)
                  00828600    00000020     modelPreesm_pe66.oe66 (.text:ti_sdo_ipc_transports_TransportShm_Params__init__S)
                  00828620    00000020     ipc.lib : Ipc.obj (.text:ti_sdo_ipc_transports_TransportShm_control__E)
                  00828640    00000020             : Ipc.obj (.text:ti_sdo_ipc_transports_TransportShm_getStatus__E)
                  00828660    00000020             : Ipc.obj (.text:ti_sdo_ipc_transports_TransportShm_notifyFxn__I)
                  00828680    00000020             : Ipc.obj (.text:ti_sdo_ipc_transports_TransportShm_setErrFxn__F)
                  008286a0    00000020             : Ipc.obj (.text:ti_sdo_utils_List_Instance_init__F)
                  008286c0    00000020     modelPreesm_pe66.oe66 (.text:ti_sdo_utils_List_Object__destruct__S)
                  008286e0    00000020     modelPreesm_pe66.oe66 (.text:ti_sdo_utils_List_Object__get__S)
                  00828700    00000020     ipc.lib : Ipc.obj (.text:ti_sdo_utils_MultiProc_getClusterId__F)
                  00828720    00000020     modelPreesm_pe66.oe66 (.text:ti_sdo_utils_NameServer_Object__first__S)
                  00828740    00000020     modelPreesm_pe66.oe66 (.text:ti_sdo_utils_NameServer_Object__next__S)
                  00828760    00000020     modelPreesm_pe66.oe66 (.text:ti_sysbios_BIOS_RtsGateProxy_enter__E)
                  00828780    00000020     modelPreesm_pe66.oe66 (.text:ti_sysbios_BIOS_RtsGateProxy_leave__E)
                  008287a0    00000020     sysbios.lib : BIOS.obj (.text:ti_sysbios_BIOS_getCpuFreq__E)
                  008287c0    00000020                 : BIOS.obj (.text:ti_sysbios_BIOS_getThreadType__E)
                  008287e0    00000020                 : BIOS.obj (.text:ti_sysbios_BIOS_setThreadType__E)
                  00828800    00000020     modelPreesm_pe66.oe66 (.text:ti_sysbios_family_c62_TaskSupport_Module__startupDone__S)
                  00828820    00000020     sysbios.lib : BIOS.obj (.text:ti_sysbios_family_c62_TaskSupport_checkStack__E)
                  00828840    00000020     modelPreesm_pe66.oe66 (.text:ti_sysbios_family_c64p_Hwi_Params__init__S)
                  00828860    00000020     sysbios.lib : BIOS.obj (.text:ti_sysbios_family_c64p_Hwi_clearInterrupt__E)
                  00828880    00000020                 : BIOS.obj (.text:ti_sysbios_family_c64p_Hwi_getHandle__E)
                  008288a0    00000020                 : BIOS.obj (.text:ti_sysbios_family_c64p_Hwi_startup__E)
                  008288c0    00000020                 : BIOS.obj (.text:ti_sysbios_family_c64p_Hwi_switchFromBootStack__E)
                  008288e0    00000020                 : BIOS.obj (.text:ti_sysbios_family_c64p_Hwi_unPluggedInterrupt__I)
                  00828900    00000020                 : BIOS.obj (.text:ti_sysbios_family_c64p_TimestampProvider_Module_startup__F)
                  00828920    00000020                 : BIOS.obj (.text:ti_sysbios_family_c64p_TimestampProvider_get64__E)
                  00828940    00000020                 : BIOS.obj (.text:ti_sysbios_family_c64p_tci6488_TimerSupport_enable__E)
                  00828960    00000020                 : BIOS.obj (.text:ti_sysbios_family_c66_Cache_inv__E)
                  00828980    00000020                 : BIOS.obj (.text:ti_sysbios_family_c66_Cache_wbInv__E)
                  008289a0    00000020                 : BIOS.obj (.text:ti_sysbios_gates_GateAll_Instance_init__F)
                  008289c0    00000020                 : BIOS.obj (.text:ti_sysbios_gates_GateAll_query__F)
                  008289e0    00000020                 : BIOS.obj (.text:ti_sysbios_gates_GateHwi_Instance_init__F)
                  00828a00    00000020                 : BIOS.obj (.text:ti_sysbios_gates_GateHwi_enter__E)
                  00828a20    00000020                 : BIOS.obj (.text:ti_sysbios_gates_GateHwi_leave__E)
                  00828a40    00000020                 : BIOS.obj (.text:ti_sysbios_gates_GateHwi_query__F)
                  00828a60    00000020                 : BIOS.obj (.text:ti_sysbios_gates_GateMutexPri_query__F)
                  00828a80    00000020                 : BIOS.obj (.text:ti_sysbios_gates_GateMutex_query__F)
                  00828aa0    00000020                 : BIOS.obj (.text:ti_sysbios_gates_GateSwi_Instance_init__F)
                  00828ac0    00000020                 : BIOS.obj (.text:ti_sysbios_gates_GateSwi_query__F)
                  00828ae0    00000020     modelPreesm_pe66.oe66 (.text:ti_sysbios_hal_Hwi_HwiProxy_Module__startupDone__S)
                  00828b00    00000020     sysbios.lib : BIOS.obj (.text:ti_sysbios_hal_Hwi_Module_startup__F)
                  00828b20    00000020                 : BIOS.obj (.text:ti_sysbios_hal_Timer_Module_startup__F)
                  00828b40    00000020     modelPreesm_pe66.oe66 (.text:ti_sysbios_hal_Timer_TimerProxy_Module__startupDone__S)
                  00828b60    00000020     modelPreesm_pe66.oe66 (.text:ti_sysbios_hal_Timer_TimerProxy_getExpiredCounts__E)
                  00828b80    00000020     modelPreesm_pe66.oe66 (.text:ti_sysbios_hal_Timer_TimerProxy_getPeriod__E)
                  00828ba0    00000020     modelPreesm_pe66.oe66 (.text:ti_sysbios_hal_Timer_TimerProxy_setNextTick__E)
                  00828bc0    00000020     modelPreesm_pe66.oe66 (.text:ti_sysbios_heaps_HeapMem_Module_GateProxy_enter__E)
                  00828be0    00000020     modelPreesm_pe66.oe66 (.text:ti_sysbios_heaps_HeapMem_Module_GateProxy_leave__E)
                  00828c00    00000020     sysbios.lib : BIOS.obj (.text:ti_sysbios_heaps_HeapMem_isBlocking__E)
                  00828c20    00000020     modelPreesm_pe66.oe66 (.text:ti_sysbios_knl_Clock_Params__init__S)
                  00828c40    00000020     sysbios.lib : BIOS.obj (.text:ti_sysbios_knl_Queue_Instance_init__F)
                  00828c60    00000020     modelPreesm_pe66.oe66 (.text:ti_sysbios_knl_Queue_Object__destruct__S)
                  00828c80    00000020     modelPreesm_pe66.oe66 (.text:ti_sysbios_knl_Queue_Object__get__S)
                  00828ca0    00000020     sysbios.lib : BIOS.obj (.text:ti_sysbios_knl_Queue_empty__E)
                  00828cc0    00000020     modelPreesm_pe66.oe66 (.text:ti_sysbios_knl_Semaphore_Params__init__S)
                  00828ce0    00000020     modelPreesm_pe66.oe66 (.text:ti_sysbios_knl_Swi_Params__init__S)
                  00828d00    00000020     sysbios.lib : BIOS.obj (.text:ti_sysbios_knl_Swi_disable__E)
                  00828d20    00000020     modelPreesm_pe66.oe66 (.text:ti_sysbios_knl_Task_Object__first__S)
                  00828d40    00000020     modelPreesm_pe66.oe66 (.text:ti_sysbios_knl_Task_Object__next__S)
                  00828d60    00000020     modelPreesm_pe66.oe66 (.text:ti_sysbios_knl_Task_SupportProxy_Module__startupDone__S)
                  00828d80    00000020     sysbios.lib : BIOS.obj (.text:ti_sysbios_knl_Task_disable__E)
                  00828da0    00000020                 : BIOS.obj (.text:ti_sysbios_knl_Task_getPri__E)
                  00828dc0    00000020                 : BIOS.obj (.text:ti_sysbios_knl_Task_self__E)
                  00828de0    00000020                 : BIOS.obj (.text:ti_sysbios_timers_timer64_Timer_setNextTick__E)
                  00828e00    00000020     ti.targets.rts6000.ae66 : GateNull.oe66 (.text:xdc_runtime_GateNull_enter__F)
                  00828e20    00000020                             : GateNull.oe66 (.text:xdc_runtime_GateNull_leave__F)
                  00828e40    00000020                             : GateNull.oe66 (.text:xdc_runtime_GateNull_query__F)
                  00828e60    00000020                             : Gate.oe66 (.text:xdc_runtime_Gate_enterSystem__F)
                  00828e80    00000020     modelPreesm_pe66.oe66 (.text:xdc_runtime_IHeap_alloc)
                  00828ea0    00000020     modelPreesm_pe66.oe66 (.text:xdc_runtime_IHeap_free)
                  00828ec0    00000020     modelPreesm_pe66.oe66 (.text:xdc_runtime_Memory_HeapProxy_alloc__E)
                  00828ee0    00000020     modelPreesm_pe66.oe66 (.text:xdc_runtime_Memory_HeapProxy_free__E)
                  00828f00    00000020     ti.targets.rts6000.ae66 : Memory.oe66 (.text:xdc_runtime_Memory_getMaxDefaultTypeAlign__F)
                  00828f20    00000020     modelPreesm_pe66.oe66 (.text:xdc_runtime_Startup_Module__startupDone__S)
                  00828f40    00000020     modelPreesm_pe66.oe66 (.text:xdc_runtime_Startup_exec__I)
                  00828f60    00000020     modelPreesm_pe66.oe66 (.text:xdc_runtime_Startup_reset__I)
                  00828f80    00000020     ti.targets.rts6000.ae66 : Startup.oe66 (.text:xdc_runtime_Startup_rtsDone__F)
                  00828fa0    00000020                             : SysStd.oe66 (.text:xdc_runtime_SysStd_exit__F)
                  00828fc0    00000020                             : SysStd.oe66 (.text:xdc_runtime_SysStd_putch__F)
                  00828fe0    00000020                             : SysStd.oe66 (.text:xdc_runtime_SysStd_ready__F)
                  00829000    00000020     modelPreesm_pe66.oe66 (.text:xdc_runtime_System_Module_GateProxy_enter__E)
                  00829020    00000020     modelPreesm_pe66.oe66 (.text:xdc_runtime_System_Module_GateProxy_leave__E)
                  00829040    00000020     ti.targets.rts6000.ae66 : System.oe66 (.text:xdc_runtime_System_Module_startup__F)
                  00829060    00000020                             : System.oe66 (.text:xdc_runtime_System_exit__F)
                  00829080    00000020                             : System.oe66 (.text:xdc_runtime_System_lastFxn__I)
                  008290a0    00000020                             : System.oe66 (.text:xdc_runtime_System_vsprintf__F)
                  008290c0    00000020     modelPreesm_pe66.oe66 (.text:xdc_runtime_Text_visitRope__I)
                  008290e0    00000020     modelPreesm_pe66.oe66 (.text:xdc_runtime_knl_GateThread_Module__startupDone__S)
                  00829100    00000020     modelPreesm_pe66.oe66 (.text:xdc_runtime_knl_GateThread_Proxy_Object__create__S)
                  00829120    00000020     modelPreesm_pe66.oe66 (.text:xdc_runtime_knl_GateThread_Proxy_Object__delete__S)
                  00829140    00000020     modelPreesm_pe66.oe66 (.text:xdc_runtime_knl_GateThread_Proxy_enter__E)
                  00829160    00000020     modelPreesm_pe66.oe66 (.text:xdc_runtime_knl_GateThread_Proxy_leave__E)
                  00829180    00000020     ti.targets.rts6000.ae66 : GateThread.oe66 (.text:xdc_runtime_knl_GateThread_enter__F)
                  008291a0    00000020                             : GateThread.oe66 (.text:xdc_runtime_knl_GateThread_leave__F)

.far.1     0    008291c0    00009038     UNINITIALIZED
                  008291c0    00008034     modelPreesm_pe66.oe66 (.far)
                  008311f4    00000004     --HOLE--
                  008311f8    00001000     modelPreesm_pe66.oe66 (.far:taskStackSection)

.far.2     0    00832200    000003a8     UNINITIALIZED
                  00832200    00000190     semaphore6678.obj (.far)
                  00832390    00000140     rts6600_elf.lib : defs.obj (.far)
                  008324d0    000000d8                     : trgdrv.obj (.far)

.far.3     0    008325b0    00000020     UNINITIALIZED
                  008325b0    00000020     communication.obj (.far)

.const     0    008325d0    00004266     
                  008325d0    000025b8     modelPreesm_pe66.oe66 (.const:xdc_runtime_Text_charTab__A)
                  00834b88    0000042c     sysbios.lib : BIOS.obj (.const:.string)
                  00834fb4    0000000c     modelPreesm_pe66.oe66 (.const:ti_sysbios_family_c66_Cache_initSize__C)
                  00834fc0    00000400     modelPreesm_pe66.oe66 (.const:ti_sysbios_family_c66_Cache_marvalues__C)
                  008353c0    00000174     modelPreesm_pe66.oe66 (.const:xdc_runtime_Text_nodeTab__A)
                  00835534    00000008     ti.targets.rts6000.ae66 : System.oe66 (.const:.string)
                  0083553c    00000004                             : Assert.oe66 (.const:.string)
                  00835540    00000101     rts6600_elf.lib : ctype.obj (.const:_ctypes_)
                  00835641    00000003     --HOLE-- [fill = 0]
                  00835644    000000d7     modelPreesm_pe66.oe66 (.const:.string)
                  0083571b    00000001     --HOLE-- [fill = 0]
                  0083571c    00000058     ti.targets.rts6000.ae66 : Error.oe66 (.const:.string)
                  00835774    00000046     displayMatrix.obj (.const:.string)
                  008357ba    00000041     communication.obj (.const:.string)
                  008357fb    00000001     --HOLE-- [fill = 0]
                  008357fc    00000040     ti.targets.rts6000.ae66 : Text.oe66 (.const:.string)
                  0083583c    00000004     modelPreesm_pe66.oe66 (.const:ti_sdo_ipc_GateMP_A_invalidClose__C)
                  00835840    00000040     modelPreesm_pe66.oe66 (.const:xdc_runtime_Startup_sfxnTab__A)
                  00835880    00000038     modelPreesm_pe66.oe66 (.const:ti_sdo_ipc_notifyDrivers_NotifyDriverShm_Module__FXNS__C)
                  008358b8    00000034     modelPreesm_pe66.oe66 (.const:ti_sdo_ipc_GateMP_Object__PARAMS__C)
                  008358ec    00000034     modelPreesm_pe66.oe66 (.const:ti_sdo_ipc_notifyDrivers_NotifyDriverShm_Object__PARAMS__C)
                  00835920    00000032     semaphore6678.obj (.const:.string)
                  00835952    00000002     --HOLE-- [fill = 0]
                  00835954    00000030     modelPreesm_pe66.oe66 (.const:ti_sdo_ipc_heaps_HeapMemMP_Object__PARAMS__C)
                  00835984    00000030     modelPreesm_pe66.oe66 (.const:ti_sysbios_family_c64p_Hwi_Object__PARAMS__C)
                  008359b4    0000002c     ti.targets.rts6000.ae66 : Startup.oe66 (.const:.string)
                  008359e0    0000002c     modelPreesm_pe66.oe66 (.const:ti_sdo_ipc_ListMP_Object__PARAMS__C)
                  00835a0c    0000002c     modelPreesm_pe66.oe66 (.const:ti_sdo_ipc_gates_GateHWSem_Module__FXNS__C)
                  00835a38    0000002c     modelPreesm_pe66.oe66 (.const:ti_sdo_ipc_gates_GateMPSupportNull_Module__FXNS__C)
                  00835a64    0000002c     modelPreesm_pe66.oe66 (.const:ti_sdo_ipc_gates_GatePeterson_Module__FXNS__C)
                  00835a90    00000028     modelPreesm_pe66.oe66 (.const:ti_sdo_ipc_heaps_HeapMemMP_Module__FXNS__C)
                  00835ab8    00000028     modelPreesm_pe66.oe66 (.const:ti_sdo_ipc_nsremote_NameServerRemoteNotify_Module__FXNS__C)
                  00835ae0    00000028     modelPreesm_pe66.oe66 (.const:ti_sdo_ipc_transports_TransportShm_Module__FXNS__C)
                  00835b08    00000028     modelPreesm_pe66.oe66 (.const:ti_sdo_ipc_transports_TransportShm_Object__PARAMS__C)
                  00835b30    00000028     modelPreesm_pe66.oe66 (.const:ti_sysbios_heaps_HeapMem_Module__FXNS__C)
                  00835b58    00000028     modelPreesm_pe66.oe66 (.const:ti_sysbios_knl_Swi_Object__PARAMS__C)
                  00835b80    00000027     generateMatrices.obj (.const:.string)
                  00835ba7    00000001     --HOLE-- [fill = 0]
                  00835ba8    00000024     modelPreesm_pe66.oe66 (.const:ti_sdo_ipc_gates_GateHWSem_Object__PARAMS__C)
                  00835bcc    00000024     modelPreesm_pe66.oe66 (.const:ti_sdo_ipc_gates_GateMPSupportNull_Object__PARAMS__C)
                  00835bf0    00000024     modelPreesm_pe66.oe66 (.const:ti_sdo_ipc_gates_GatePeterson_Object__PARAMS__C)
                  00835c14    00000024     modelPreesm_pe66.oe66 (.const:ti_sysbios_gates_GateAll_Module__FXNS__C)
                  00835c38    00000024     modelPreesm_pe66.oe66 (.const:ti_sysbios_gates_GateHwi_Module__FXNS__C)
                  00835c5c    00000024     modelPreesm_pe66.oe66 (.const:ti_sysbios_gates_GateMutexPri_Module__FXNS__C)
                  00835c80    00000024     modelPreesm_pe66.oe66 (.const:ti_sysbios_gates_GateMutex_Module__FXNS__C)
                  00835ca4    00000024     modelPreesm_pe66.oe66 (.const:ti_sysbios_gates_GateSwi_Module__FXNS__C)
                  00835cc8    00000024     modelPreesm_pe66.oe66 (.const:ti_sysbios_knl_Clock_Object__PARAMS__C)
                  00835cec    00000024     modelPreesm_pe66.oe66 (.const:ti_sysbios_knl_Semaphore_Object__PARAMS__C)
                  00835d10    00000024     modelPreesm_pe66.oe66 (.const:xdc_runtime_GateNull_Module__FXNS__C)
                  00835d34    00000024     modelPreesm_pe66.oe66 (.const:xdc_runtime_knl_GateThread_Module__FXNS__C)
                  00835d58    00000023     rts6600_elf.lib : _printfi.obj (.const:.string)
                  00835d7b    00000001     --HOLE-- [fill = 0]
                  00835d7c    00000020     ti.targets.rts6000.ae66 : Core-mem.oe66 (.const:.string)
                  00835d9c    00000020     modelPreesm_pe66.oe66 (.const:ti_sdo_ipc_GateMP_Object__DESC__C)
                  00835dbc    00000020     modelPreesm_pe66.oe66 (.const:ti_sdo_ipc_ListMP_Object__DESC__C)
                  00835ddc    00000020     modelPreesm_pe66.oe66 (.const:ti_sdo_ipc_Notify_Object__DESC__C)
                  00835dfc    00000020     modelPreesm_pe66.oe66 (.const:ti_sdo_ipc_gates_GateHWSem_Object__DESC__C)
                  00835e1c    00000020     modelPreesm_pe66.oe66 (.const:ti_sdo_ipc_gates_GateMPSupportNull_Object__DESC__C)
                  00835e3c    00000020     modelPreesm_pe66.oe66 (.const:ti_sdo_ipc_gates_GatePeterson_Object__DESC__C)
                  00835e5c    00000020     modelPreesm_pe66.oe66 (.const:ti_sdo_ipc_heaps_HeapMemMP_Object__DESC__C)
                  00835e7c    00000020     modelPreesm_pe66.oe66 (.const:ti_sdo_ipc_notifyDrivers_NotifyDriverShm_Object__DESC__C)
                  00835e9c    00000020     modelPreesm_pe66.oe66 (.const:ti_sdo_ipc_nsremote_NameServerRemoteNotify_Object__DESC__C)
                  00835ebc    00000020     modelPreesm_pe66.oe66 (.const:ti_sdo_ipc_nsremote_NameServerRemoteNotify_Object__PARAMS__C)
                  00835edc    00000020     modelPreesm_pe66.oe66 (.const:ti_sdo_ipc_transports_TransportShm_Object__DESC__C)
                  00835efc    00000020     modelPreesm_pe66.oe66 (.const:ti_sdo_utils_List_Object__DESC__C)
                  00835f1c    00000020     modelPreesm_pe66.oe66 (.const:ti_sysbios_family_c64p_Hwi_Object__DESC__C)
                  00835f3c    00000020     modelPreesm_pe66.oe66 (.const:ti_sysbios_gates_GateAll_Object__DESC__C)
                  00835f5c    00000020     modelPreesm_pe66.oe66 (.const:ti_sysbios_gates_GateHwi_Object__DESC__C)
                  00835f7c    00000020     modelPreesm_pe66.oe66 (.const:ti_sysbios_gates_GateMutexPri_Object__DESC__C)
                  00835f9c    00000020     modelPreesm_pe66.oe66 (.const:ti_sysbios_gates_GateMutex_Object__DESC__C)
                  00835fbc    00000020     modelPreesm_pe66.oe66 (.const:ti_sysbios_gates_GateSwi_Object__DESC__C)
                  00835fdc    00000020     modelPreesm_pe66.oe66 (.const:ti_sysbios_heaps_HeapMem_Object__DESC__C)
                  00835ffc    00000020     modelPreesm_pe66.oe66 (.const:ti_sysbios_heaps_HeapMem_Object__PARAMS__C)
                  0083601c    00000020     modelPreesm_pe66.oe66 (.const:ti_sysbios_knl_Clock_Object__DESC__C)
                  0083603c    00000020     modelPreesm_pe66.oe66 (.const:ti_sysbios_knl_Queue_Object__DESC__C)
                  0083605c    00000020     modelPreesm_pe66.oe66 (.const:ti_sysbios_knl_Semaphore_Object__DESC__C)
                  0083607c    00000020     modelPreesm_pe66.oe66 (.const:ti_sysbios_knl_Swi_Object__DESC__C)
                  0083609c    00000020     modelPreesm_pe66.oe66 (.const:ti_sysbios_xdcruntime_GateThreadSupport_Object__DESC__C)
                  008360bc    00000020     modelPreesm_pe66.oe66 (.const:xdc_runtime_GateNull_Object__DESC__C)
                  008360dc    00000004     modelPreesm_pe66.oe66 (.const:ti_sdo_ipc_GateMP_A_invalidDelete__C)
                  008360e0    00000020     modelPreesm_pe66.oe66 (.const:xdc_runtime_Startup_sfxnRts__A)
                  00836100    00000020     modelPreesm_pe66.oe66 (.const:xdc_runtime_knl_GateThread_Object__DESC__C)
                  00836120    00000018     modelPreesm_pe66.oe66 (.const:ti_sdo_ipc_Notify_Object__PARAMS__C)
                  00836138    00000018     modelPreesm_pe66.oe66 (.const:ti_sdo_utils_List_Object__PARAMS__C)
                  00836150    00000018     modelPreesm_pe66.oe66 (.const:ti_sysbios_gates_GateAll_Object__PARAMS__C)
                  00836168    00000018     modelPreesm_pe66.oe66 (.const:ti_sysbios_gates_GateHwi_Object__PARAMS__C)
                  00836180    00000018     modelPreesm_pe66.oe66 (.const:ti_sysbios_gates_GateMutexPri_Object__PARAMS__C)
                  00836198    00000018     modelPreesm_pe66.oe66 (.const:ti_sysbios_gates_GateMutex_Object__PARAMS__C)
                  008361b0    00000018     modelPreesm_pe66.oe66 (.const:ti_sysbios_gates_GateSwi_Object__PARAMS__C)
                  008361c8    00000018     modelPreesm_pe66.oe66 (.const:ti_sysbios_knl_Queue_Object__PARAMS__C)
                  008361e0    00000018     modelPreesm_pe66.oe66 (.const:ti_sysbios_knl_Task_hooks__A)
                  008361f8    00000018     modelPreesm_pe66.oe66 (.const:ti_sysbios_xdcruntime_GateThreadSupport_Object__PARAMS__C)
                  00836210    00000018     modelPreesm_pe66.oe66 (.const:xdc_runtime_GateNull_Object__PARAMS__C)
                  00836228    00000018     modelPreesm_pe66.oe66 (.const:xdc_runtime_knl_GateThread_Object__PARAMS__C)
                  00836240    00000016     main.obj (.const:.string)
                  00836256    00000002     --HOLE-- [fill = 0]
                  00836258    00000008     modelPreesm_pe66.oe66 (.const:ti_sysbios_knl_Idle_funcList__C)
                  00836260    00000011     ti.targets.rts6000.ae66 : System.oe66 (.const:digtohex)
                  00836271    00000003     --HOLE-- [fill = 0]
                  00836274    00000008     modelPreesm_pe66.oe66 (.const:ti_sysbios_knl_Task_hooks__C)
                  0083627c    00000004     modelPreesm_pe66.oe66 (.const:ti_sdo_ipc_GateMP_E_gateUnavailable__C)
                  00836280    00000010     modelPreesm_pe66.oe66 (.const:ti_sdo_ipc_family_c647x_MultiProcSetup_procMap__A)
                  00836290    00000010     modelPreesm_pe66.oe66 (.const:ti_sdo_utils_MultiProc_procIdList__A)
                  008362a0    0000000c     modelPreesm_pe66.oe66 (.const:xdc_runtime_Startup_firstFxns__A)
                  008362ac    00000008     modelPreesm_pe66.oe66 (.const:xdc_runtime_Startup_firstFxns__C)
                  008362b4    00000008     modelPreesm_pe66.oe66 (.const:xdc_runtime_Startup_lastFxns__C)
                  008362bc    00000004     modelPreesm_pe66.oe66 (.const:ti_sdo_ipc_GateMP_E_localGate__C)
                  008362c0    00000004     modelPreesm_pe66.oe66 (.const:ti_sdo_ipc_GateMP_LM_create__C)
                  008362c4    00000004     modelPreesm_pe66.oe66 (.const:ti_sdo_ipc_GateMP_LM_delete__C)
                  008362c8    00000004     modelPreesm_pe66.oe66 (.const:ti_sdo_ipc_GateMP_LM_enter__C)
                  008362cc    00000004     modelPreesm_pe66.oe66 (.const:ti_sdo_ipc_GateMP_LM_leave__C)
                  008362d0    00000004     modelPreesm_pe66.oe66 (.const:ti_sdo_ipc_GateMP_LM_open__C)
                  008362d4    00000004     modelPreesm_pe66.oe66 (.const:ti_sdo_ipc_GateMP_Module__diagsEnabled__C)
                  008362d8    00000004     modelPreesm_pe66.oe66 (.const:ti_sdo_ipc_GateMP_Module__diagsIncluded__C)
                  008362dc    00000004     modelPreesm_pe66.oe66 (.const:ti_sdo_ipc_GateMP_Module__diagsMask__C)
                  008362e0    00000004     modelPreesm_pe66.oe66 (.const:ti_sdo_ipc_GateMP_Module__loggerFxn2__C)
                  008362e4    00000004     modelPreesm_pe66.oe66 (.const:ti_sdo_ipc_GateMP_Module__loggerFxn4__C)
                  008362e8    00000004     modelPreesm_pe66.oe66 (.const:ti_sdo_ipc_GateMP_Module__loggerObj__C)
                  008362ec    00000004     modelPreesm_pe66.oe66 (.const:ti_sdo_ipc_Ipc_A_addrNotCacheAligned__C)
                  008362f0    00000004     modelPreesm_pe66.oe66 (.const:ti_sdo_ipc_Ipc_A_addrNotInSharedRegion__C)
                  008362f4    00000004     modelPreesm_pe66.oe66 (.const:ti_sdo_ipc_Ipc_A_internal__C)
                  008362f8    00000004     modelPreesm_pe66.oe66 (.const:ti_sdo_ipc_Ipc_A_invArgument__C)
                  008362fc    00000004     modelPreesm_pe66.oe66 (.const:ti_sdo_ipc_Ipc_A_invParam__C)
                  00836300    00000004     modelPreesm_pe66.oe66 (.const:ti_sdo_ipc_Ipc_A_nullArgument__C)
                  00836304    00000004     modelPreesm_pe66.oe66 (.const:ti_sdo_ipc_Ipc_A_nullPointer__C)
                  00836308    00000004     modelPreesm_pe66.oe66 (.const:ti_sdo_ipc_Ipc_E_internal__C)
                  0083630c    00000004     modelPreesm_pe66.oe66 (.const:ti_sdo_ipc_Ipc_E_nameFailed__C)
                  00836310    00000004     modelPreesm_pe66.oe66 (.const:ti_sdo_ipc_Ipc_E_versionMismatch__C)
                  00836314    00000004     modelPreesm_pe66.oe66 (.const:ti_sdo_ipc_Ipc_Module__diagsEnabled__C)
                  00836318    00000004     modelPreesm_pe66.oe66 (.const:ti_sdo_ipc_Ipc_Module__diagsIncluded__C)
                  0083631c    00000004     modelPreesm_pe66.oe66 (.const:ti_sdo_ipc_Ipc_Module__diagsMask__C)
                  00836320    00000004     modelPreesm_pe66.oe66 (.const:ti_sdo_ipc_Ipc_numUserFxns__C)
                  00836324    00000004     modelPreesm_pe66.oe66 (.const:ti_sdo_ipc_Ipc_procSync__C)
                  00836328    00000004     modelPreesm_pe66.oe66 (.const:ti_sdo_ipc_Ipc_userFxns__C)
                  0083632c    00000004     modelPreesm_pe66.oe66 (.const:ti_sdo_ipc_ListMP_Module__diagsEnabled__C)
                  00836330    00000004     modelPreesm_pe66.oe66 (.const:ti_sdo_ipc_ListMP_Module__diagsIncluded__C)
                  00836334    00000004     modelPreesm_pe66.oe66 (.const:ti_sdo_ipc_ListMP_Module__diagsMask__C)
                  00836338    00000004     modelPreesm_pe66.oe66 (.const:ti_sdo_ipc_MessageQ_A_invalidMsg__C)
                  0083633c    00000004     modelPreesm_pe66.oe66 (.const:ti_sdo_ipc_MessageQ_A_invalidObj__C)
                  00836340    00000004     modelPreesm_pe66.oe66 (.const:ti_sdo_ipc_MessageQ_A_invalidQueueId__C)
                  00836344    00000004     modelPreesm_pe66.oe66 (.const:ti_sdo_ipc_MessageQ_A_procIdInvalid__C)
                  00836348    00000004     modelPreesm_pe66.oe66 (.const:ti_sdo_ipc_MessageQ_A_unregisteredTransport__C)
                  0083634c    00000004     modelPreesm_pe66.oe66 (.const:ti_sdo_ipc_MessageQ_Instance_State_highList__O)
                  00836350    00000004     modelPreesm_pe66.oe66 (.const:ti_sdo_ipc_MessageQ_Instance_State_normalList__O)
                  00836354    00000004     modelPreesm_pe66.oe66 (.const:ti_sdo_ipc_MessageQ_LM_putLocal__C)
                  00836358    00000004     modelPreesm_pe66.oe66 (.const:ti_sdo_ipc_MessageQ_Module__diagsEnabled__C)
                  0083635c    00000004     modelPreesm_pe66.oe66 (.const:ti_sdo_ipc_MessageQ_Module__diagsIncluded__C)
                  00836360    00000004     modelPreesm_pe66.oe66 (.const:ti_sdo_ipc_MessageQ_Module__diagsMask__C)
                  00836364    00000004     modelPreesm_pe66.oe66 (.const:ti_sdo_ipc_MessageQ_Module__loggerFxn4__C)
                  00836368    00000004     modelPreesm_pe66.oe66 (.const:ti_sdo_ipc_MessageQ_Module__loggerObj__C)
                  0083636c    00000004     modelPreesm_pe66.oe66 (.const:ti_sdo_ipc_MessageQ_Object__count__C)
                  00836370    00000004     modelPreesm_pe66.oe66 (.const:ti_sdo_ipc_Notify_A_alreadyRegistered__C)
                  00836374    00000004     modelPreesm_pe66.oe66 (.const:ti_sdo_ipc_Notify_A_internal__C)
                  00836378    00000004     modelPreesm_pe66.oe66 (.const:ti_sdo_ipc_Notify_A_invArgument__C)
                  0083637c    00000004     modelPreesm_pe66.oe66 (.const:ti_sdo_ipc_Notify_A_notRegistered__C)
                  00836380    00000004     modelPreesm_pe66.oe66 (.const:ti_sdo_ipc_Notify_A_reservedEvent__C)
                  00836384    00000004     modelPreesm_pe66.oe66 (.const:ti_sdo_ipc_Notify_Module__diagsEnabled__C)
                  00836388    00000004     modelPreesm_pe66.oe66 (.const:ti_sdo_ipc_Notify_Module__diagsIncluded__C)
                  0083638c    00000004     modelPreesm_pe66.oe66 (.const:ti_sdo_ipc_Notify_Module__diagsMask__C)
                  00836390    00000004     modelPreesm_pe66.oe66 (.const:ti_sdo_ipc_Notify_Module__gateObj__C)
                  00836394    00000004     modelPreesm_pe66.oe66 (.const:ti_sdo_ipc_Notify_Object__heap__C)
                  00836398    00000004     modelPreesm_pe66.oe66 (.const:ti_sdo_ipc_Notify_numEvents__C)
                  0083639c    00000004     modelPreesm_pe66.oe66 (.const:ti_sdo_ipc_Notify_sendEventPollCount__C)
                  008363a0    00000004     modelPreesm_pe66.oe66 (.const:ti_sdo_ipc_SharedRegion_A_addrOutOfRange__C)
                  008363a4    00000004     modelPreesm_pe66.oe66 (.const:ti_sdo_ipc_SharedRegion_A_idTooLarge__C)
                  008363a8    00000004     modelPreesm_pe66.oe66 (.const:ti_sdo_ipc_SharedRegion_A_noHeap__C)
                  008363ac    00000004     modelPreesm_pe66.oe66 (.const:ti_sdo_ipc_SharedRegion_A_region0Invalid__C)
                  008363b0    00000004     modelPreesm_pe66.oe66 (.const:ti_sdo_ipc_SharedRegion_A_regionInvalid__C)
                  008363b4    00000004     modelPreesm_pe66.oe66 (.const:ti_sdo_ipc_SharedRegion_A_reserveTooMuch__C)
                  008363b8    00000004     modelPreesm_pe66.oe66 (.const:ti_sdo_ipc_SharedRegion_INVALIDSRPTR__C)
                  008363bc    00000004     modelPreesm_pe66.oe66 (.const:ti_sdo_ipc_SharedRegion_Module__diagsEnabled__C)
                  008363c0    00000004     modelPreesm_pe66.oe66 (.const:ti_sdo_ipc_SharedRegion_Module__diagsIncluded__C)
                  008363c4    00000004     modelPreesm_pe66.oe66 (.const:ti_sdo_ipc_SharedRegion_Module__diagsMask__C)
                  008363c8    00000004     modelPreesm_pe66.oe66 (.const:ti_sdo_ipc_SharedRegion_cacheLineSize__C)
                  008363cc    00000004     modelPreesm_pe66.oe66 (.const:ti_sdo_ipc_SharedRegion_numOffsetBits__C)
                  008363d0    00000004     modelPreesm_pe66.oe66 (.const:ti_sdo_ipc_SharedRegion_offsetMask__C)
                  008363d4    00000004     modelPreesm_pe66.oe66 (.const:ti_sdo_ipc_family_c647x_Interrupt_INTERDSPINT__C)
                  008363d8    00000004     modelPreesm_pe66.oe66 (.const:ti_sdo_ipc_family_c647x_Interrupt_IPCAR0__C)
                  008363dc    00000004     modelPreesm_pe66.oe66 (.const:ti_sdo_ipc_family_c647x_Interrupt_IPCGR0__C)
                  008363e0    00000004     modelPreesm_pe66.oe66 (.const:ti_sdo_ipc_family_c647x_Interrupt_KICK0__C)
                  008363e4    00000004     modelPreesm_pe66.oe66 (.const:ti_sdo_ipc_family_c647x_Interrupt_KICK1__C)
                  008363e8    00000004     modelPreesm_pe66.oe66 (.const:ti_sdo_ipc_family_c647x_MultiProcSetup_A_invalidProcessor__C)
                  008363ec    00000004     modelPreesm_pe66.oe66 (.const:ti_sdo_ipc_family_c647x_MultiProcSetup_Module__diagsEnabled__C)
                  008363f0    00000004     modelPreesm_pe66.oe66 (.const:ti_sdo_ipc_family_c647x_MultiProcSetup_Module__diagsIncluded__C)
                  008363f4    00000004     modelPreesm_pe66.oe66 (.const:ti_sdo_ipc_family_c647x_MultiProcSetup_Module__diagsMask__C)
                  008363f8    00000004     modelPreesm_pe66.oe66 (.const:ti_sdo_ipc_family_c647x_MultiProcSetup_procMap__C)
                  008363fc    00000004     modelPreesm_pe66.oe66 (.const:ti_sdo_ipc_family_c647x_NotifySetup_dspIntVectId__C)
                  00836400    00000004     modelPreesm_pe66.oe66 (.const:ti_sdo_ipc_gates_GateHWSem_A_invSemNum__C)
                  00836404    00000004     modelPreesm_pe66.oe66 (.const:ti_sdo_ipc_gates_GateHWSem_Module__diagsEnabled__C)
                  00836408    00000004     modelPreesm_pe66.oe66 (.const:ti_sdo_ipc_gates_GateHWSem_Module__diagsIncluded__C)
                  0083640c    00000004     modelPreesm_pe66.oe66 (.const:ti_sdo_ipc_gates_GateHWSem_Module__diagsMask__C)
                  00836410    00000004     modelPreesm_pe66.oe66 (.const:ti_sdo_ipc_gates_GateHWSem_baseAddr__C)
                  00836414    00000004     modelPreesm_pe66.oe66 (.const:ti_sdo_ipc_gates_GateHWSem_numSems__C)
                  00836418    00000004     modelPreesm_pe66.oe66 (.const:ti_sdo_ipc_gates_GateHWSem_reservedMaskArr__C)
                  0083641c    00000004     modelPreesm_pe66.oe66 (.const:ti_sdo_ipc_gates_GateMPSupportNull_A_invalidAction__C)
                  00836420    00000004     modelPreesm_pe66.oe66 (.const:ti_sdo_ipc_gates_GateHWSem_reservedMaskArr__A)
                  00836424    00000004     modelPreesm_pe66.oe66 (.const:ti_sdo_ipc_gates_GateMPSupportNull_Module__diagsEnabled__C)
                  00836428    00000004     modelPreesm_pe66.oe66 (.const:ti_sdo_ipc_gates_GateMPSupportNull_Module__diagsIncluded__C)
                  0083642c    00000004     modelPreesm_pe66.oe66 (.const:ti_sdo_ipc_gates_GateMPSupportNull_Module__diagsMask__C)
                  00836430    00000004     modelPreesm_pe66.oe66 (.const:ti_sdo_ipc_gates_GateMPSupportNull_action__C)
                  00836434    00000004     modelPreesm_pe66.oe66 (.const:ti_sdo_ipc_gates_GatePeterson_E_gateRemotelyOpened__C)
                  00836438    00000004     modelPreesm_pe66.oe66 (.const:ti_sdo_ipc_gates_GatePeterson_Module__diagsEnabled__C)
                  0083643c    00000004     modelPreesm_pe66.oe66 (.const:ti_sdo_ipc_gates_GatePeterson_Module__diagsIncluded__C)
                  00836440    00000004     modelPreesm_pe66.oe66 (.const:ti_sdo_ipc_gates_GatePeterson_Module__diagsMask__C)
                  00836444    00000004     modelPreesm_pe66.oe66 (.const:ti_sdo_ipc_gates_GatePeterson_numInstances__C)
                  00836448    00000004     modelPreesm_pe66.oe66 (.const:ti_sdo_ipc_heaps_HeapMemMP_A_align__C)
                  0083644c    00000004     modelPreesm_pe66.oe66 (.const:ti_sdo_ipc_heaps_HeapMemMP_A_heapSize__C)
                  00836450    00000004     modelPreesm_pe66.oe66 (.const:ti_sdo_ipc_heaps_HeapMemMP_A_invalidFree__C)
                  00836454    00000004     modelPreesm_pe66.oe66 (.const:ti_sdo_ipc_heaps_HeapMemMP_A_zeroBlock__C)
                  00836458    00000004     modelPreesm_pe66.oe66 (.const:ti_sdo_ipc_heaps_HeapMemMP_E_memory__C)
                  0083645c    00000004     modelPreesm_pe66.oe66 (.const:ti_sdo_ipc_heaps_HeapMemMP_Module__diagsEnabled__C)
                  00836460    00000004     modelPreesm_pe66.oe66 (.const:ti_sdo_ipc_heaps_HeapMemMP_Module__diagsIncluded__C)
                  00836464    00000004     modelPreesm_pe66.oe66 (.const:ti_sdo_ipc_heaps_HeapMemMP_Module__diagsMask__C)
                  00836468    00000004     modelPreesm_pe66.oe66 (.const:ti_sdo_ipc_interfaces_IGateMPSupport_Interface__BASE__C)
                  0083646c    00000004     modelPreesm_pe66.oe66 (.const:ti_sdo_ipc_interfaces_IMessageQTransport_Interface__BASE__C)
                  00836470    00000004     modelPreesm_pe66.oe66 (.const:ti_sdo_ipc_interfaces_INotifyDriver_Interface__BASE__C)
                  00836474    00000004     modelPreesm_pe66.oe66 (.const:ti_sdo_ipc_notifyDrivers_NotifyDriverShm_Module__diagsEnabled__C)
                  00836478    00000004     modelPreesm_pe66.oe66 (.const:ti_sdo_ipc_notifyDrivers_NotifyDriverShm_Module__diagsIncluded__C)
                  0083647c    00000004     modelPreesm_pe66.oe66 (.const:ti_sdo_ipc_notifyDrivers_NotifyDriverShm_Module__diagsMask__C)
                  00836480    00000004     modelPreesm_pe66.oe66 (.const:ti_sdo_ipc_notifyDrivers_NotifyDriverShm_Object__heap__C)
                  00836484    00000004     modelPreesm_pe66.oe66 (.const:ti_sdo_ipc_nsremote_NameServerRemoteNotify_A_invalidValueLen__C)
                  00836488    00000004     modelPreesm_pe66.oe66 (.const:ti_sdo_ipc_nsremote_NameServerRemoteNotify_Instance_State_semMultiBlock__O)
                  0083648c    00000004     modelPreesm_pe66.oe66 (.const:ti_sdo_ipc_nsremote_NameServerRemoteNotify_Instance_State_semRemoteWait__O)
                  00836490    00000004     modelPreesm_pe66.oe66 (.const:ti_sdo_ipc_nsremote_NameServerRemoteNotify_Instance_State_swiObj__O)
                  00836494    00000004     modelPreesm_pe66.oe66 (.const:ti_sdo_ipc_nsremote_NameServerRemoteNotify_Module__diagsEnabled__C)
                  00836498    00000004     modelPreesm_pe66.oe66 (.const:ti_sdo_ipc_nsremote_NameServerRemoteNotify_Module__diagsIncluded__C)
                  0083649c    00000004     modelPreesm_pe66.oe66 (.const:ti_sdo_ipc_nsremote_NameServerRemoteNotify_Module__diagsMask__C)
                  008364a0    00000004     modelPreesm_pe66.oe66 (.const:ti_sdo_ipc_nsremote_NameServerRemoteNotify_notifyEventId__C)
                  008364a4    00000004     modelPreesm_pe66.oe66 (.const:ti_sdo_ipc_nsremote_NameServerRemoteNotify_timeout__C)
                  008364a8    00000004     modelPreesm_pe66.oe66 (.const:ti_sdo_ipc_transports_TransportShmSetup_priority__C)
                  008364ac    00000004     modelPreesm_pe66.oe66 (.const:ti_sdo_ipc_transports_TransportShm_Instance_State_swiObj__O)
                  008364b0    00000004     modelPreesm_pe66.oe66 (.const:ti_sdo_ipc_transports_TransportShm_Module__diagsEnabled__C)
                  008364b4    00000004     modelPreesm_pe66.oe66 (.const:ti_sdo_ipc_transports_TransportShm_Module__diagsIncluded__C)
                  008364b8    00000004     modelPreesm_pe66.oe66 (.const:ti_sdo_ipc_transports_TransportShm_Module__diagsMask__C)
                  008364bc    00000004     modelPreesm_pe66.oe66 (.const:ti_sdo_utils_INameServerRemote_Interface__BASE__C)
                  008364c0    00000004     modelPreesm_pe66.oe66 (.const:ti_sdo_utils_MultiProc_A_invalidMultiProcId__C)
                  008364c4    00000004     modelPreesm_pe66.oe66 (.const:ti_sdo_utils_MultiProc_Module__diagsEnabled__C)
                  008364c8    00000004     modelPreesm_pe66.oe66 (.const:ti_sdo_utils_MultiProc_Module__diagsIncluded__C)
                  008364cc    00000004     modelPreesm_pe66.oe66 (.const:ti_sdo_utils_MultiProc_Module__diagsMask__C)
                  008364d0    00000004     modelPreesm_pe66.oe66 (.const:ti_sdo_utils_MultiProc_procIdList__C)
                  008364d4    00000004     modelPreesm_pe66.oe66 (.const:ti_sdo_utils_NameServer_A_invArgument__C)
                  008364d8    00000004     modelPreesm_pe66.oe66 (.const:ti_sdo_utils_NameServer_A_invalidLen__C)
                  008364dc    00000004     modelPreesm_pe66.oe66 (.const:ti_sdo_utils_NameServer_E_entryExists__C)
                  008364e0    00000004     modelPreesm_pe66.oe66 (.const:ti_sdo_utils_NameServer_E_maxReached__C)
                  008364e4    00000004     modelPreesm_pe66.oe66 (.const:ti_sdo_utils_NameServer_Instance_State_freeList__O)
                  008364e8    00000004     modelPreesm_pe66.oe66 (.const:ti_sdo_utils_NameServer_Instance_State_nameList__O)
                  008364ec    00000004     modelPreesm_pe66.oe66 (.const:ti_sdo_utils_NameServer_Module__diagsEnabled__C)
                  008364f0    00000004     modelPreesm_pe66.oe66 (.const:ti_sdo_utils_NameServer_Module__diagsIncluded__C)
                  008364f4    00000004     modelPreesm_pe66.oe66 (.const:ti_sdo_utils_NameServer_Module__diagsMask__C)
                  008364f8    00000004     modelPreesm_pe66.oe66 (.const:ti_sdo_utils_NameServer_Object__count__C)
                  008364fc    00000004     modelPreesm_pe66.oe66 (.const:ti_sysbios_BIOS_Module__diagsEnabled__C)
                  00836500    00000004     modelPreesm_pe66.oe66 (.const:ti_sysbios_BIOS_Module__diagsIncluded__C)
                  00836504    00000004     modelPreesm_pe66.oe66 (.const:ti_sysbios_BIOS_Module__diagsMask__C)
                  00836508    00000004     modelPreesm_pe66.oe66 (.const:ti_sysbios_BIOS_installedErrorHook__C)
                  0083650c    00000004     modelPreesm_pe66.oe66 (.const:ti_sysbios_family_c64p_Exception_E_exceptionMin__C)
                  00836510    00000004     modelPreesm_pe66.oe66 (.const:ti_sysbios_family_c64p_Exception_exceptionHook__C)
                  00836514    00000004     modelPreesm_pe66.oe66 (.const:ti_sysbios_family_c64p_Exception_externalHook__C)
                  00836518    00000004     modelPreesm_pe66.oe66 (.const:ti_sysbios_family_c64p_Exception_internalHook__C)
                  0083651c    00000004     modelPreesm_pe66.oe66 (.const:ti_sysbios_family_c64p_Exception_nmiHook__C)
                  00836520    00000004     modelPreesm_pe66.oe66 (.const:ti_sysbios_family_c64p_Hwi_E_alreadyDefined__C)
                  00836524    00000004     modelPreesm_pe66.oe66 (.const:ti_sysbios_family_c64p_Hwi_E_handleNotFound__C)
                  00836528    00000004     modelPreesm_pe66.oe66 (.const:ti_sysbios_family_c64p_Hwi_LD_end__C)
                  0083652c    00000004     modelPreesm_pe66.oe66 (.const:ti_sysbios_family_c64p_Hwi_LM_begin__C)
                  00836530    00000004     modelPreesm_pe66.oe66 (.const:ti_sysbios_family_c64p_Hwi_Module__diagsEnabled__C)
                  00836534    00000004     modelPreesm_pe66.oe66 (.const:ti_sysbios_family_c64p_Hwi_Module__diagsIncluded__C)
                  00836538    00000004     modelPreesm_pe66.oe66 (.const:ti_sysbios_family_c64p_Hwi_Module__diagsMask__C)
                  0083653c    00000004     modelPreesm_pe66.oe66 (.const:ti_sysbios_family_c64p_Hwi_Module__loggerFxn1__C)
                  00836540    00000004     modelPreesm_pe66.oe66 (.const:ti_sysbios_family_c64p_Hwi_Module__loggerFxn8__C)
                  00836544    00000004     modelPreesm_pe66.oe66 (.const:ti_sysbios_family_c64p_Hwi_Module__loggerObj__C)
                  00836548    00000004     modelPreesm_pe66.oe66 (.const:ti_sysbios_family_c66_Cache_atomicBlockSize__C)
                  0083654c    00000004     modelPreesm_pe66.oe66 (.const:ti_sysbios_gates_GateMutexPri_A_badContext__C)
                  00836550    00000004     modelPreesm_pe66.oe66 (.const:ti_sysbios_gates_GateMutexPri_Instance_State_pendQ__O)
                  00836554    00000004     modelPreesm_pe66.oe66 (.const:ti_sysbios_gates_GateMutexPri_Module__diagsEnabled__C)
                  00836558    00000004     modelPreesm_pe66.oe66 (.const:ti_sysbios_gates_GateMutexPri_Module__diagsIncluded__C)
                  0083655c    00000004     modelPreesm_pe66.oe66 (.const:ti_sysbios_gates_GateMutexPri_Module__diagsMask__C)
                  00836560    00000004     modelPreesm_pe66.oe66 (.const:ti_sysbios_gates_GateMutex_A_badContext__C)
                  00836564    00000004     modelPreesm_pe66.oe66 (.const:ti_sysbios_gates_GateMutex_Instance_State_sem__O)
                  00836568    00000004     modelPreesm_pe66.oe66 (.const:ti_sysbios_gates_GateMutex_Module__diagsEnabled__C)
                  0083656c    00000004     modelPreesm_pe66.oe66 (.const:ti_sysbios_gates_GateMutex_Module__diagsIncluded__C)
                  00836570    00000004     modelPreesm_pe66.oe66 (.const:ti_sysbios_gates_GateMutex_Module__diagsMask__C)
                  00836574    00000004     modelPreesm_pe66.oe66 (.const:ti_sysbios_gates_GateSwi_A_badContext__C)
                  00836578    00000004     modelPreesm_pe66.oe66 (.const:ti_sysbios_gates_GateSwi_Module__diagsEnabled__C)
                  0083657c    00000004     modelPreesm_pe66.oe66 (.const:ti_sysbios_gates_GateSwi_Module__diagsIncluded__C)
                  00836580    00000004     modelPreesm_pe66.oe66 (.const:ti_sysbios_gates_GateSwi_Module__diagsMask__C)
                  00836584    00000004     modelPreesm_pe66.oe66 (.const:ti_sysbios_hal_Hwi_E_stackOverflow__C)
                  00836588    00000004     modelPreesm_pe66.oe66 (.const:ti_sysbios_heaps_HeapMem_A_align__C)
                  0083658c    00000004     modelPreesm_pe66.oe66 (.const:ti_sysbios_heaps_HeapMem_A_heapSize__C)
                  00836590    00000004     modelPreesm_pe66.oe66 (.const:ti_sysbios_heaps_HeapMem_A_invalidFree__C)
                  00836594    00000004     modelPreesm_pe66.oe66 (.const:ti_sysbios_heaps_HeapMem_A_zeroBlock__C)
                  00836598    00000004     modelPreesm_pe66.oe66 (.const:ti_sysbios_heaps_HeapMem_E_memory__C)
                  0083659c    00000004     modelPreesm_pe66.oe66 (.const:ti_sysbios_heaps_HeapMem_Module__diagsEnabled__C)
                  008365a0    00000004     modelPreesm_pe66.oe66 (.const:ti_sysbios_heaps_HeapMem_Module__diagsIncluded__C)
                  008365a4    00000004     modelPreesm_pe66.oe66 (.const:ti_sysbios_heaps_HeapMem_Module__diagsMask__C)
                  008365a8    00000004     modelPreesm_pe66.oe66 (.const:ti_sysbios_heaps_HeapMem_Module__gateObj__C)
                  008365ac    00000004     modelPreesm_pe66.oe66 (.const:ti_sysbios_heaps_HeapMem_Object__count__C)
                  008365b0    00000004     modelPreesm_pe66.oe66 (.const:ti_sysbios_heaps_HeapMem_reqAlignMask__C)
                  008365b4    00000004     modelPreesm_pe66.oe66 (.const:ti_sysbios_heaps_HeapMem_reqAlign__C)
                  008365b8    00000004     modelPreesm_pe66.oe66 (.const:ti_sysbios_knl_Clock_A_badThreadType__C)
                  008365bc    00000004     modelPreesm_pe66.oe66 (.const:ti_sysbios_knl_Clock_LM_begin__C)
                  008365c0    00000004     modelPreesm_pe66.oe66 (.const:ti_sysbios_knl_Clock_LM_tick__C)
                  008365c4    00000004     modelPreesm_pe66.oe66 (.const:ti_sysbios_knl_Clock_LW_delayed__C)
                  008365c8    00000004     modelPreesm_pe66.oe66 (.const:ti_sysbios_knl_Clock_Module_State_clockQ__O)
                  008365cc    00000004     modelPreesm_pe66.oe66 (.const:ti_sysbios_knl_Clock_Module__diagsEnabled__C)
                  008365d0    00000004     modelPreesm_pe66.oe66 (.const:ti_sysbios_knl_Clock_Module__diagsIncluded__C)
                  008365d4    00000004     modelPreesm_pe66.oe66 (.const:ti_sysbios_knl_Clock_Module__diagsMask__C)
                  008365d8    00000004     modelPreesm_pe66.oe66 (.const:ti_sysbios_knl_Clock_Module__loggerFxn1__C)
                  008365dc    00000004     modelPreesm_pe66.oe66 (.const:ti_sysbios_knl_Clock_Module__loggerFxn2__C)
                  008365e0    00000004     modelPreesm_pe66.oe66 (.const:ti_sysbios_knl_Clock_Module__loggerObj__C)
                  008365e4    00000004     modelPreesm_pe66.oe66 (.const:ti_sysbios_knl_Clock_tickMode__C)
                  008365e8    00000004     modelPreesm_pe66.oe66 (.const:ti_sysbios_knl_Clock_tickSource__C)
                  008365ec    00000004     modelPreesm_pe66.oe66 (.const:ti_sysbios_knl_Semaphore_A_badContext__C)
                  008365f0    00000004     modelPreesm_pe66.oe66 (.const:ti_sysbios_knl_Idle_funcList__A)
                  008365f4    00000004     modelPreesm_pe66.oe66 (.const:ti_sysbios_knl_Semaphore_A_noEvents__C)
                  008365f8    00000004     modelPreesm_pe66.oe66 (.const:ti_sysbios_knl_Semaphore_A_overflow__C)
                  008365fc    00000004     modelPreesm_pe66.oe66 (.const:ti_sysbios_knl_Semaphore_Instance_State_pendQ__O)
                  00836600    00000004     modelPreesm_pe66.oe66 (.const:ti_sysbios_knl_Semaphore_LM_pend__C)
                  00836604    00000004     modelPreesm_pe66.oe66 (.const:ti_sysbios_knl_Semaphore_LM_post__C)
                  00836608    00000004     modelPreesm_pe66.oe66 (.const:ti_sysbios_knl_Semaphore_Module__diagsEnabled__C)
                  0083660c    00000004     modelPreesm_pe66.oe66 (.const:ti_sysbios_knl_Semaphore_Module__diagsIncluded__C)
                  00836610    00000004     modelPreesm_pe66.oe66 (.const:ti_sysbios_knl_Semaphore_Module__diagsMask__C)
                  00836614    00000004     modelPreesm_pe66.oe66 (.const:ti_sysbios_knl_Semaphore_Module__loggerFxn2__C)
                  00836618    00000004     modelPreesm_pe66.oe66 (.const:ti_sysbios_knl_Semaphore_Module__loggerFxn4__C)
                  0083661c    00000004     modelPreesm_pe66.oe66 (.const:ti_sysbios_knl_Semaphore_Module__loggerObj__C)
                  00836620    00000004     modelPreesm_pe66.oe66 (.const:ti_sysbios_knl_Swi_A_badPriority__C)
                  00836624    00000004     modelPreesm_pe66.oe66 (.const:ti_sysbios_knl_Swi_LD_end__C)
                  00836628    00000004     modelPreesm_pe66.oe66 (.const:ti_sysbios_knl_Swi_LM_begin__C)
                  0083662c    00000004     modelPreesm_pe66.oe66 (.const:ti_sysbios_knl_Swi_LM_post__C)
                  00836630    00000004     modelPreesm_pe66.oe66 (.const:ti_sysbios_knl_Swi_Module__diagsEnabled__C)
                  00836634    00000004     modelPreesm_pe66.oe66 (.const:ti_sysbios_knl_Swi_Module__diagsIncluded__C)
                  00836638    00000004     modelPreesm_pe66.oe66 (.const:ti_sysbios_knl_Swi_Module__diagsMask__C)
                  0083663c    00000004     modelPreesm_pe66.oe66 (.const:ti_sysbios_knl_Swi_Module__loggerFxn1__C)
                  00836640    00000004     modelPreesm_pe66.oe66 (.const:ti_sysbios_knl_Swi_Module__loggerFxn4__C)
                  00836644    00000004     modelPreesm_pe66.oe66 (.const:ti_sysbios_knl_Swi_Module__loggerObj__C)
                  00836648    00000004     modelPreesm_pe66.oe66 (.const:ti_sysbios_knl_Swi_Object__count__C)
                  0083664c    00000004     modelPreesm_pe66.oe66 (.const:ti_sysbios_knl_Task_A_badPriority__C)
                  00836650    00000004     modelPreesm_pe66.oe66 (.const:ti_sysbios_knl_Task_A_badTimeout__C)
                  00836654    00000004     modelPreesm_pe66.oe66 (.const:ti_sysbios_knl_Task_E_spOutOfBounds__C)
                  00836658    00000004     modelPreesm_pe66.oe66 (.const:ti_sysbios_knl_Task_E_stackOverflow__C)
                  0083665c    00000004     modelPreesm_pe66.oe66 (.const:ti_sysbios_knl_Task_LD_block__C)
                  00836660    00000004     modelPreesm_pe66.oe66 (.const:ti_sysbios_knl_Task_LD_exit__C)
                  00836664    00000004     modelPreesm_pe66.oe66 (.const:ti_sysbios_knl_Task_LD_ready__C)
                  00836668    00000004     modelPreesm_pe66.oe66 (.const:ti_sysbios_knl_Task_LM_setPri__C)
                  0083666c    00000004     modelPreesm_pe66.oe66 (.const:ti_sysbios_knl_Task_LM_sleep__C)
                  00836670    00000004     modelPreesm_pe66.oe66 (.const:ti_sysbios_knl_Task_LM_switch__C)
                  00836674    00000004     modelPreesm_pe66.oe66 (.const:ti_sysbios_knl_Task_LM_yield__C)
                  00836678    00000004     modelPreesm_pe66.oe66 (.const:ti_sysbios_knl_Task_Module_State_inactiveQ__O)
                  0083667c    00000004     modelPreesm_pe66.oe66 (.const:ti_sysbios_knl_Task_Module_State_terminatedQ__O)
                  00836680    00000004     modelPreesm_pe66.oe66 (.const:ti_sysbios_knl_Task_Module__diagsEnabled__C)
                  00836684    00000004     modelPreesm_pe66.oe66 (.const:ti_sysbios_knl_Task_Module__diagsIncluded__C)
                  00836688    00000004     modelPreesm_pe66.oe66 (.const:ti_sysbios_knl_Task_Module__diagsMask__C)
                  0083668c    00000004     modelPreesm_pe66.oe66 (.const:ti_sysbios_knl_Task_Module__loggerFxn2__C)
                  00836690    00000004     modelPreesm_pe66.oe66 (.const:ti_sysbios_knl_Task_Module__loggerFxn4__C)
                  00836694    00000004     modelPreesm_pe66.oe66 (.const:ti_sysbios_knl_Task_Module__loggerObj__C)
                  00836698    00000004     modelPreesm_pe66.oe66 (.const:ti_sysbios_knl_Task_Object__count__C)
                  0083669c    00000004     modelPreesm_pe66.oe66 (.const:ti_sysbios_knl_Task_allBlockedFunc__C)
                  008366a0    00000004     modelPreesm_pe66.oe66 (.const:ti_sysbios_knl_Task_numConstructedTasks__C)
                  008366a4    00000004     modelPreesm_pe66.oe66 (.const:ti_sysbios_knl_Task_numPriorities__C)
                  008366a8    00000004     modelPreesm_pe66.oe66 (.const:ti_sysbios_timers_timer64_Timer_A_notAvailable__C)
                  008366ac    00000004     modelPreesm_pe66.oe66 (.const:ti_sysbios_timers_timer64_Timer_E_cannotSupport__C)
                  008366b0    00000004     modelPreesm_pe66.oe66 (.const:ti_sysbios_timers_timer64_Timer_Module__diagsEnabled__C)
                  008366b4    00000004     modelPreesm_pe66.oe66 (.const:ti_sysbios_timers_timer64_Timer_Module__diagsIncluded__C)
                  008366b8    00000004     modelPreesm_pe66.oe66 (.const:ti_sysbios_timers_timer64_Timer_Module__diagsMask__C)
                  008366bc    00000004     modelPreesm_pe66.oe66 (.const:ti_sysbios_timers_timer64_Timer_anyMask__C)
                  008366c0    00000004     modelPreesm_pe66.oe66 (.const:ti_sysbios_timers_timer64_Timer_freqDivisor__C)
                  008366c4    00000004     modelPreesm_pe66.oe66 (.const:ti_sysbios_timers_timer64_Timer_numLocalTimers__C)
                  008366c8    00000004     modelPreesm_pe66.oe66 (.const:ti_sysbios_timers_timer64_Timer_numTimerDevices__C)
                  008366cc    00000004     modelPreesm_pe66.oe66 (.const:ti_sysbios_xdcruntime_GateThreadSupport_Instance_State_gate__O)
                  008366d0    00000004     modelPreesm_pe66.oe66 (.const:xdc_runtime_Assert_E_assertFailed__C)
                  008366d4    00000004     modelPreesm_pe66.oe66 (.const:xdc_runtime_Core_A_initializedParams__C)
                  008366d8    00000004     modelPreesm_pe66.oe66 (.const:xdc_runtime_Core_Module__diagsEnabled__C)
                  008366dc    00000004     modelPreesm_pe66.oe66 (.const:xdc_runtime_Core_Module__diagsIncluded__C)
                  008366e0    00000004     modelPreesm_pe66.oe66 (.const:xdc_runtime_Core_Module__diagsMask__C)
                  008366e4    00000004     modelPreesm_pe66.oe66 (.const:xdc_runtime_Error_E_generic__C)
                  008366e8    00000004     modelPreesm_pe66.oe66 (.const:xdc_runtime_Error_E_memory__C)
                  008366ec    00000004     modelPreesm_pe66.oe66 (.const:xdc_runtime_Error_Module__diagsEnabled__C)
                  008366f0    00000004     modelPreesm_pe66.oe66 (.const:xdc_runtime_Error_Module__diagsIncluded__C)
                  008366f4    00000004     modelPreesm_pe66.oe66 (.const:xdc_runtime_Error_Module__diagsMask__C)
                  008366f8    00000004     modelPreesm_pe66.oe66 (.const:xdc_runtime_Error_Module__loggerFxn8__C)
                  008366fc    00000004     modelPreesm_pe66.oe66 (.const:xdc_runtime_Error_Module__loggerObj__C)
                  00836700    00000004     modelPreesm_pe66.oe66 (.const:xdc_runtime_Error_policy__C)
                  00836704    00000004     modelPreesm_pe66.oe66 (.const:xdc_runtime_Error_raiseHook__C)
                  00836708    00000004     modelPreesm_pe66.oe66 (.const:xdc_runtime_IGateProvider_Interface__BASE__C)
                  0083670c    00000004     modelPreesm_pe66.oe66 (.const:xdc_runtime_IHeap_Interface__BASE__C)
                  00836710    00000004     modelPreesm_pe66.oe66 (.const:xdc_runtime_IModule_Interface__BASE__C)
                  00836714    00000004     modelPreesm_pe66.oe66 (.const:xdc_runtime_Log_L_error__C)
                  00836718    00000004     modelPreesm_pe66.oe66 (.const:xdc_runtime_Memory_defaultHeapInstance__C)
                  0083671c    00000004     modelPreesm_pe66.oe66 (.const:xdc_runtime_Startup_execImpl__C)
                  00836720    00000004     modelPreesm_pe66.oe66 (.const:xdc_runtime_Startup_lastFxns__A)
                  00836724    00000004     modelPreesm_pe66.oe66 (.const:xdc_runtime_Startup_maxPasses__C)
                  00836728    00000004     modelPreesm_pe66.oe66 (.const:xdc_runtime_Startup_sfxnRts__C)
                  0083672c    00000004     modelPreesm_pe66.oe66 (.const:xdc_runtime_Startup_sfxnTab__C)
                  00836730    00000004     modelPreesm_pe66.oe66 (.const:xdc_runtime_System_Module__gateObj__C)
                  00836734    00000004     modelPreesm_pe66.oe66 (.const:xdc_runtime_System_extendFxn__C)
                  00836738    00000004     modelPreesm_pe66.oe66 (.const:xdc_runtime_System_maxAtexitHandlers__C)
                  0083673c    00000004     modelPreesm_pe66.oe66 (.const:xdc_runtime_Text_charTab__C)
                  00836740    00000004     modelPreesm_pe66.oe66 (.const:xdc_runtime_Text_nameEmpty__C)
                  00836744    00000004     modelPreesm_pe66.oe66 (.const:xdc_runtime_Text_nameStatic__C)
                  00836748    00000004     modelPreesm_pe66.oe66 (.const:xdc_runtime_Text_nameUnknown__C)
                  0083674c    00000004     modelPreesm_pe66.oe66 (.const:xdc_runtime_Text_nodeTab__C)
                  00836750    00000004     modelPreesm_pe66.oe66 (.const:xdc_runtime_Text_visitRopeFxn__C)
                  00836754    00000002     modelPreesm_pe66.oe66 (.const:ti_sdo_ipc_GateMP_Module__id__C)
                  00836756    00000002     --HOLE-- [fill = 0]
                  00836758    00000002     modelPreesm_pe66.oe66 (.const:ti_sdo_ipc_GateMP_Module__loggerDefined__C)
                  0083675a    00000002     --HOLE-- [fill = 0]
                  0083675c    00000002     modelPreesm_pe66.oe66 (.const:ti_sdo_ipc_Ipc_Module__id__C)
                  0083675e    00000002     --HOLE-- [fill = 0]
                  00836760    00000002     modelPreesm_pe66.oe66 (.const:ti_sdo_ipc_Ipc_generateSlaveDataForHost__C)
                  00836762    00000002     --HOLE-- [fill = 0]
                  00836764    00000002     modelPreesm_pe66.oe66 (.const:ti_sdo_ipc_ListMP_Module__id__C)
                  00836766    00000002     --HOLE-- [fill = 0]
                  00836768    00000002     modelPreesm_pe66.oe66 (.const:ti_sdo_ipc_MessageQ_Module__id__C)
                  0083676a    00000002     --HOLE-- [fill = 0]
                  0083676c    00000002     modelPreesm_pe66.oe66 (.const:ti_sdo_ipc_MessageQ_Module__loggerDefined__C)
                  0083676e    00000002     --HOLE-- [fill = 0]
                  00836770    00000002     modelPreesm_pe66.oe66 (.const:ti_sdo_ipc_Notify_Module__id__C)
                  00836772    00000002     --HOLE-- [fill = 0]
                  00836774    00000002     modelPreesm_pe66.oe66 (.const:ti_sdo_ipc_Notify_numLines__C)
                  00836776    00000002     --HOLE-- [fill = 0]
                  00836778    00000002     modelPreesm_pe66.oe66 (.const:ti_sdo_ipc_Notify_reservedEvents__C)
                  0083677a    00000002     --HOLE-- [fill = 0]
                  0083677c    00000002     modelPreesm_pe66.oe66 (.const:ti_sdo_ipc_SharedRegion_Module__id__C)
                  0083677e    00000002     --HOLE-- [fill = 0]
                  00836780    00000002     modelPreesm_pe66.oe66 (.const:ti_sdo_ipc_SharedRegion_numEntries__C)
                  00836782    00000002     --HOLE-- [fill = 0]
                  00836784    00000002     modelPreesm_pe66.oe66 (.const:ti_sdo_ipc_SharedRegion_translate__C)
                  00836786    00000002     --HOLE-- [fill = 0]
                  00836788    00000002     modelPreesm_pe66.oe66 (.const:ti_sdo_ipc_family_c647x_Interrupt_enableKick__C)
                  0083678a    00000002     --HOLE-- [fill = 0]
                  0083678c    00000002     modelPreesm_pe66.oe66 (.const:ti_sdo_ipc_family_c647x_MultiProcSetup_Module__id__C)
                  0083678e    00000002     --HOLE-- [fill = 0]
                  00836790    00000002     modelPreesm_pe66.oe66 (.const:ti_sdo_ipc_gates_GateHWSem_Module__id__C)
                  00836792    00000002     --HOLE-- [fill = 0]
                  00836794    00000002     modelPreesm_pe66.oe66 (.const:ti_sdo_ipc_gates_GateMPSupportNull_Module__id__C)
                  00836796    00000002     --HOLE-- [fill = 0]
                  00836798    00000002     modelPreesm_pe66.oe66 (.const:ti_sdo_ipc_gates_GatePeterson_Module__id__C)
                  0083679a    00000002     --HOLE-- [fill = 0]
                  0083679c    00000002     modelPreesm_pe66.oe66 (.const:ti_sdo_ipc_heaps_HeapMemMP_Module__id__C)
                  0083679e    00000002     --HOLE-- [fill = 0]
                  008367a0    00000002     modelPreesm_pe66.oe66 (.const:ti_sdo_ipc_notifyDrivers_NotifyDriverShm_Module__id__C)
                  008367a2    00000002     --HOLE-- [fill = 0]
                  008367a4    00000002     modelPreesm_pe66.oe66 (.const:ti_sdo_ipc_nsremote_NameServerRemoteNotify_Module__id__C)
                  008367a6    00000002     --HOLE-- [fill = 0]
                  008367a8    00000002     modelPreesm_pe66.oe66 (.const:ti_sdo_ipc_transports_TransportShm_Module__id__C)
                  008367aa    00000002     --HOLE-- [fill = 0]
                  008367ac    00000002     modelPreesm_pe66.oe66 (.const:ti_sdo_ipc_transports_TransportShm_notifyEventId__C)
                  008367ae    00000002     --HOLE-- [fill = 0]
                  008367b0    00000002     modelPreesm_pe66.oe66 (.const:ti_sdo_utils_MultiProc_Module__id__C)
                  008367b2    00000002     --HOLE-- [fill = 0]
                  008367b4    00000002     modelPreesm_pe66.oe66 (.const:ti_sdo_utils_MultiProc_numProcessors__C)
                  008367b6    00000002     --HOLE-- [fill = 0]
                  008367b8    00000002     modelPreesm_pe66.oe66 (.const:ti_sdo_utils_MultiProc_numProcsInCluster__C)
                  008367ba    00000002     --HOLE-- [fill = 0]
                  008367bc    00000002     modelPreesm_pe66.oe66 (.const:ti_sdo_utils_NameServer_Module__id__C)
                  008367be    00000002     --HOLE-- [fill = 0]
                  008367c0    00000002     modelPreesm_pe66.oe66 (.const:ti_sdo_utils_NameServer_singleProcessor__C)
                  008367c2    00000002     --HOLE-- [fill = 0]
                  008367c4    00000002     modelPreesm_pe66.oe66 (.const:ti_sysbios_BIOS_Module__id__C)
                  008367c6    00000002     --HOLE-- [fill = 0]
                  008367c8    00000002     modelPreesm_pe66.oe66 (.const:ti_sysbios_family_c64p_Exception_Module__id__C)
                  008367ca    00000002     --HOLE-- [fill = 0]
                  008367cc    00000002     modelPreesm_pe66.oe66 (.const:ti_sysbios_family_c64p_Hwi_Module__id__C)
                  008367ce    00000002     --HOLE-- [fill = 0]
                  008367d0    00000002     modelPreesm_pe66.oe66 (.const:ti_sysbios_family_c64p_Hwi_Module__loggerDefined__C)
                  008367d2    00000002     --HOLE-- [fill = 0]
                  008367d4    00000002     modelPreesm_pe66.oe66 (.const:ti_sysbios_gates_GateMutexPri_Module__id__C)
                  008367d6    00000002     --HOLE-- [fill = 0]
                  008367d8    00000002     modelPreesm_pe66.oe66 (.const:ti_sysbios_gates_GateMutex_Module__id__C)
                  008367da    00000002     --HOLE-- [fill = 0]
                  008367dc    00000002     modelPreesm_pe66.oe66 (.const:ti_sysbios_gates_GateSwi_Module__id__C)
                  008367de    00000002     --HOLE-- [fill = 0]
                  008367e0    00000002     modelPreesm_pe66.oe66 (.const:ti_sysbios_hal_Hwi_Module__id__C)
                  008367e2    00000002     --HOLE-- [fill = 0]
                  008367e4    00000002     modelPreesm_pe66.oe66 (.const:ti_sysbios_heaps_HeapMem_Module__id__C)
                  008367e6    00000002     --HOLE-- [fill = 0]
                  008367e8    00000002     modelPreesm_pe66.oe66 (.const:ti_sysbios_knl_Clock_Module__id__C)
                  008367ea    00000002     --HOLE-- [fill = 0]
                  008367ec    00000002     modelPreesm_pe66.oe66 (.const:ti_sysbios_knl_Clock_Module__loggerDefined__C)
                  008367ee    00000002     --HOLE-- [fill = 0]
                  008367f0    00000002     modelPreesm_pe66.oe66 (.const:ti_sysbios_knl_Semaphore_Module__id__C)
                  008367f2    00000002     --HOLE-- [fill = 0]
                  008367f4    00000002     modelPreesm_pe66.oe66 (.const:ti_sysbios_knl_Semaphore_Module__loggerDefined__C)
                  008367f6    00000002     --HOLE-- [fill = 0]
                  008367f8    00000002     modelPreesm_pe66.oe66 (.const:ti_sysbios_knl_Swi_Module__id__C)
                  008367fa    00000002     --HOLE-- [fill = 0]
                  008367fc    00000002     modelPreesm_pe66.oe66 (.const:ti_sysbios_knl_Swi_Module__loggerDefined__C)
                  008367fe    00000002     --HOLE-- [fill = 0]
                  00836800    00000002     modelPreesm_pe66.oe66 (.const:ti_sysbios_knl_Task_Module__id__C)
                  00836802    00000002     --HOLE-- [fill = 0]
                  00836804    00000002     modelPreesm_pe66.oe66 (.const:ti_sysbios_knl_Task_Module__loggerDefined__C)
                  00836806    00000002     --HOLE-- [fill = 0]
                  00836808    00000002     modelPreesm_pe66.oe66 (.const:ti_sysbios_knl_Task_deleteTerminatedTasks__C)
                  0083680a    00000002     --HOLE-- [fill = 0]
                  0083680c    00000002     modelPreesm_pe66.oe66 (.const:ti_sysbios_knl_Task_initStackFlag__C)
                  0083680e    00000002     --HOLE-- [fill = 0]
                  00836810    00000002     modelPreesm_pe66.oe66 (.const:ti_sysbios_timers_timer64_Timer_Module__id__C)
                  00836812    00000002     --HOLE-- [fill = 0]
                  00836814    00000002     modelPreesm_pe66.oe66 (.const:ti_sysbios_timers_timer64_Timer_startupNeeded__C)
                  00836816    00000002     --HOLE-- [fill = 0]
                  00836818    00000002     modelPreesm_pe66.oe66 (.const:xdc_runtime_Core_Module__id__C)
                  0083681a    00000002     --HOLE-- [fill = 0]
                  0083681c    00000002     modelPreesm_pe66.oe66 (.const:xdc_runtime_Error_Module__loggerDefined__C)
                  0083681e    00000002     --HOLE-- [fill = 0]
                  00836820    00000002     modelPreesm_pe66.oe66 (.const:xdc_runtime_Error_maxDepth__C)
                  00836822    00000002     --HOLE-- [fill = 0]
                  00836824    00000002     modelPreesm_pe66.oe66 (.const:xdc_runtime_Memory_Module__id__C)
                  00836826    00000002     --HOLE-- [fill = 0]
                  00836828    00000002     modelPreesm_pe66.oe66 (.const:xdc_runtime_Text_charCnt__C)
                  0083682a    00000002     --HOLE-- [fill = 0]
                  0083682c    00000002     modelPreesm_pe66.oe66 (.const:xdc_runtime_Text_isLoaded__C)
                  0083682e    00000002     --HOLE-- [fill = 0]
                  00836830    00000002     modelPreesm_pe66.oe66 (.const:xdc_runtime_Text_registryModsLastId__C)
                  00836832    00000002     --HOLE-- [fill = 0]
                  00836834    00000002     modelPreesm_pe66.oe66 (.const:xdc_runtime_Text_unnamedModsLastId__C)

.fardata.1 
*          0    00836840    00001578     
                  00836840    00000800     modelPreesm_pe66.oe66 (.fardata:ti_sdo_ipc_GateMP_Module_State_0_remoteCustom1Gates__A)
                  00837040    00000320     modelPreesm_pe66.oe66 (.fardata)
                  00837360    000001e0     rts6600_elf.lib : defs.obj (.fardata:_ftable)
                  00837540    00000180     modelPreesm_pe66.oe66 (.fardata:ti_sysbios_timers_timer64_Timer_Module_State_0_device__A)
                  008376c0    00000118     modelPreesm_pe66.oe66 (.fardata:ti_sdo_utils_NameServer_Object__table__V)
                  008377d8    00000008     rts6600_elf.lib : _lock.obj (.fardata)
                  008377e0    000000a0                     : lowlev.obj (.fardata:_stream)
                  00837880    000000a0     modelPreesm_pe66.oe66 (.fardata:ti_sdo_ipc_Ipc_Module_State_0_procEntry__A)
                  00837920    00000090     modelPreesm_pe66.oe66 (.fardata:ti_sdo_ipc_SharedRegion_Module_State_0_regions__A)
                  008379b0    00000088     modelPreesm_pe66.oe66 (.fardata:ti_sysbios_knl_Task_Object__table__V)
                  00837a38    00000004     rts6600_elf.lib : defs.obj (.fardata)
                  00837a3c    00000004                     : dtor_list.obj (.fardata)
                  00837a40    00000080     modelPreesm_pe66.oe66 (.fardata:ti_sdo_ipc_GateMP_Module_State_0_remoteSystemGates__A)
                  00837ac0    00000080     modelPreesm_pe66.oe66 (.fardata:ti_sysbios_knl_Swi_Module_State_0_readyQ__A)
                  00837b40    00000080     modelPreesm_pe66.oe66 (.fardata:ti_sysbios_knl_Task_Module_State_0_readyQ__A)
                  00837bc0    00000080     modelPreesm_pe66.oe66 (.fardata:ti_sysbios_timers_timer64_Timer_Module_State_0_gctrl__A)
                  00837c40    00000080     modelPreesm_pe66.oe66 (.fardata:ti_sysbios_timers_timer64_Timer_Module_State_0_handles__A)
                  00837cc0    00000080     modelPreesm_pe66.oe66 (.fardata:ti_sysbios_timers_timer64_Timer_Module_State_0_intFreqs__A)
                  00837d40    00000078     rts6600_elf.lib : lowlev.obj (.fardata:_device)

.fardata.2 
*          0    00837dc0    000001d8     
                  00837dc0    0000004c     modelPreesm_pe66.oe66 (.fardata:ti_sysbios_timers_timer64_Timer_Object__table__V)
                  00837e0c    00000004     --HOLE--
                  00837e10    00000040     modelPreesm_pe66.oe66 (.fardata:ti_sdo_ipc_MessageQ_Module_State_0_transports__A)
                  00837e50    00000040     modelPreesm_pe66.oe66 (.fardata:ti_sdo_ipc_family_c647x_Interrupt_Module_State_0_fxnTable__A)
                  00837e90    00000040     modelPreesm_pe66.oe66 (.fardata:ti_sysbios_gates_GateMutex_Object__table__V)
                  00837ed0    00000030     modelPreesm_pe66.oe66 (.fardata:ti_sysbios_knl_Swi_Object__table__V)
                  00837f00    00000020     modelPreesm_pe66.oe66 (.fardata:ti_sdo_ipc_MessageQ_Module_State_0_heaps__A)
                  00837f20    00000020     modelPreesm_pe66.oe66 (.fardata:ti_sdo_ipc_Notify_Module_State_0_notifyHandles__A)
                  00837f40    00000020     modelPreesm_pe66.oe66 (.fardata:ti_sdo_ipc_transports_TransportShmSetup_Module_State_0_handles__A)
                  00837f60    00000020     modelPreesm_pe66.oe66 (.fardata:xdc_runtime_System_Module_State_0_atexitHandlers__A)
                  00837f80    00000018     modelPreesm_pe66.oe66 (.fardata:ti_sysbios_family_c64p_Hwi_Object__table__V)

.fardata.3 
*          0    00837fa0    00000018     
                  00837fa0    00000018     modelPreesm_pe66.oe66 (.fardata:ti_sysbios_gates_GateMutexPri_Object__table__V)

.fardata.4 
*          0    00837fc0    00000048     
                  00837fc0    00000014     modelPreesm_pe66.oe66 (.fardata:ti_sysbios_heaps_HeapMem_Object__table__V)
                  00837fd4    0000000c     rts6600_elf.lib : exit.obj (.fardata)
                  00837fe0    00000010     modelPreesm_pe66.oe66 (.fardata:ti_sysbios_gates_GateAll_Object__table__V)
                  00837ff0    0000000c     modelPreesm_pe66.oe66 (.fardata:ti_sysbios_gates_GateSwi_Object__table__V)
                  00837ffc    00000004     --HOLE--
                  00838000    00000008     modelPreesm_pe66.oe66 (.fardata:ti_sysbios_hal_Hwi_Object__table__V)

.fardata.5 
*          0    00838010    00000008     
                  00838010    00000008     modelPreesm_pe66.oe66 (.fardata:ti_sysbios_hal_Timer_Object__table__V)

.fardata.6 
*          0    00838020    00000004     
                  00838020    00000004     modelPreesm_pe66.oe66 (.fardata:ti_sdo_ipc_GateMP_Module_State_0_remoteCustom2Gates__A)

.fardata.7 
*          0    00838030    00000004     
                  00838030    00000004     modelPreesm_pe66.oe66 (.fardata:ti_sdo_ipc_Notify_Module_State_0_notifyHandles_0__A)

.fardata.8 
*          0    00838040    00000004     
                  00838040    00000004     modelPreesm_pe66.oe66 (.fardata:ti_sdo_ipc_Notify_Module_State_0_notifyHandles_1__A)

.fardata.9 
*          0    00838050    00000004     
                  00838050    00000004     modelPreesm_pe66.oe66 (.fardata:ti_sdo_ipc_Notify_Module_State_0_notifyHandles_2__A)

.fardata.10 
*          0    00838060    00000004     
                  00838060    00000004     modelPreesm_pe66.oe66 (.fardata:ti_sdo_ipc_Notify_Module_State_0_notifyHandles_3__A)

.fardata.11 
*          0    00838070    00000004     
                  00838070    00000004     modelPreesm_pe66.oe66 (.fardata:ti_sdo_ipc_Notify_Module_State_0_notifyHandles_4__A)

.fardata.12 
*          0    00838080    00000004     
                  00838080    00000004     modelPreesm_pe66.oe66 (.fardata:ti_sdo_ipc_Notify_Module_State_0_notifyHandles_5__A)

.fardata.13 
*          0    00838090    00000004     
                  00838090    00000004     modelPreesm_pe66.oe66 (.fardata:ti_sdo_ipc_Notify_Module_State_0_notifyHandles_6__A)

.fardata.14 
*          0    008380a0    00000004     
                  008380a0    00000004     modelPreesm_pe66.oe66 (.fardata:ti_sdo_ipc_Notify_Module_State_0_notifyHandles_7__A)

.fardata.15 
*          0    008380b0    00000004     
                  008380b0    00000004     modelPreesm_pe66.oe66 (.fardata:ti_sysbios_gates_GateHwi_Object__table__V)

.fardata.16 
*          0    008380c0    00000004     
                  008380c0    00000004     modelPreesm_pe66.oe66 (.fardata:xdc_runtime_GateNull_Object__table__V)

.stack     0    008380c8    00001000     UNINITIALIZED
                  008380c8    00000008     boot.ae66 : boot.oe66 (.stack)
                  008380d0    00000ff8     --HOLE--

.cio       0    008390c8    00000120     UNINITIALIZED
                  008390c8    00000120     rts6600_elf.lib : trgmsg.obj (.cio)

.bss       0    008391e8    00000004     UNINITIALIZED
                  008391e8    00000004     modelPreesm_pe66.oe66 (.bss)

.neardata 
*          0    008391ec    00000004     
                  008391ec    00000004     semaphore6678.obj (.neardata)

.rodata    0    008391f0    000000e0     
                  008391f0    000000e0     Core0.obj (.rodata)

.switch    0    008392d0    00000030     
                  008392d0    00000020     main.obj (.switch:tsk0_func)
                  008392f0    00000010     ipc.lib : Ipc.obj (.switch:ti_sdo_ipc_GateMP_Instance_finalize__F)

.vecs      0    00839400    00000200     
                  00839400    00000200     modelPreesm_pe66.oe66 (.vecs)

.cinit     0    00839600    00000ae0     
                  00839600    0000076c     (.cinit..fardata.1.load) [load image, compression = rle]
                  00839d6c    000000e6     (.cinit..rodata.load) [load image, compression = rle]
                  00839e52    00000002     --HOLE-- [fill = 0]
                  00839e54    000000a1     (.cinit..fardata.2.load) [load image, compression = rle]
                  00839ef5    00000003     --HOLE-- [fill = 0]
                  00839ef8    00000034     (.cinit..fardata.4.load) [load image, compression = rle]
                  00839f2c    00000016     (.cinit..fardata.3.load) [load image, compression = rle]
                  00839f42    00000002     --HOLE-- [fill = 0]
                  00839f44    0000000d     (.cinit..fardata.5.load) [load image, compression = rle]
                  00839f51    00000003     --HOLE-- [fill = 0]
                  00839f54    0000000c     (__TI_handler_table)
                  00839f60    0000000a     (.cinit..fardata.15.load) [load image, compression = rle]
                  00839f6a    00000002     --HOLE-- [fill = 0]
                  00839f6c    0000000a     (.cinit..fardata.16.load) [load image, compression = rle]
                  00839f76    00000002     --HOLE-- [fill = 0]
                  00839f78    00000009     (.cinit..fardata.10.load) [load image, compression = rle]
                  00839f81    00000003     --HOLE-- [fill = 0]
                  00839f84    00000009     (.cinit..fardata.11.load) [load image, compression = rle]
                  00839f8d    00000003     --HOLE-- [fill = 0]
                  00839f90    00000009     (.cinit..fardata.12.load) [load image, compression = rle]
                  00839f99    00000003     --HOLE-- [fill = 0]
                  00839f9c    00000009     (.cinit..fardata.13.load) [load image, compression = rle]
                  00839fa5    00000003     --HOLE-- [fill = 0]
                  00839fa8    00000009     (.cinit..fardata.14.load) [load image, compression = rle]
                  00839fb1    00000003     --HOLE-- [fill = 0]
                  00839fb4    00000009     (.cinit..fardata.6.load) [load image, compression = rle]
                  00839fbd    00000003     --HOLE-- [fill = 0]
                  00839fc0    00000009     (.cinit..fardata.7.load) [load image, compression = rle]
                  00839fc9    00000003     --HOLE-- [fill = 0]
                  00839fcc    00000009     (.cinit..fardata.8.load) [load image, compression = rle]
                  00839fd5    00000003     --HOLE-- [fill = 0]
                  00839fd8    00000009     (.cinit..fardata.9.load) [load image, compression = rle]
                  00839fe1    00000003     --HOLE-- [fill = 0]
                  00839fe4    00000009     (.cinit..neardata.load) [load image, compression = rle]
                  00839fed    00000003     --HOLE-- [fill = 0]
                  00839ff0    00000008     (.cinit..bss.load) [load image, compression = zero_init]
                  00839ff8    00000008     (.cinit..far.1.load) [load image, compression = zero_init]
                  0083a000    00000008     (.cinit..far.2.load) [load image, compression = zero_init]
                  0083a008    00000008     (.cinit..far.3.load) [load image, compression = zero_init]
                  0083a010    00000008     (.cinit..mySharedMem.load) [load image, compression = zero_init]
                  0083a018    00000007     (.cinit..MSMCSRAM.load) [load image, compression = rle]
                  0083a01f    00000001     --HOLE-- [fill = 0]
                  0083a020    000000c0     (__TI_cinit_table)

ti.sdo.ipc.SharedRegion_0 
*          0    0c000000    000ffffc     NOLOAD SECTION
                  0c000000    000ffffc     --HOLE--

.MSMCSRAM 
*          0    0c0ffffc    00000001     
                  0c0ffffc    00000001     communication.obj (.MSMCSRAM)

.mySharedMem 
*          0    80000000    18000180     UNINITIALIZED
                  80000000    18000180     Core0.obj (.mySharedMem)


LINKER GENERATED COPY TABLES

__TI_cinit_table @ 0083a020 records: 24, size/record: 8, table size: 192
	.fardata.1: load addr=00839600, load size=0000076c bytes, run addr=00836840, run size=00001578 bytes, compression=rle
	.rodata: load addr=00839d6c, load size=000000e6 bytes, run addr=008391f0, run size=000000e0 bytes, compression=rle
	.fardata.2: load addr=00839e54, load size=000000a1 bytes, run addr=00837dc0, run size=000001d8 bytes, compression=rle
	.fardata.4: load addr=00839ef8, load size=00000034 bytes, run addr=00837fc0, run size=00000048 bytes, compression=rle
	.fardata.3: load addr=00839f2c, load size=00000016 bytes, run addr=00837fa0, run size=00000018 bytes, compression=rle
	.fardata.5: load addr=00839f44, load size=0000000d bytes, run addr=00838010, run size=00000008 bytes, compression=rle
	.fardata.15: load addr=00839f60, load size=0000000a bytes, run addr=008380b0, run size=00000004 bytes, compression=rle
	.fardata.16: load addr=00839f6c, load size=0000000a bytes, run addr=008380c0, run size=00000004 bytes, compression=rle
	.fardata.10: load addr=00839f78, load size=00000009 bytes, run addr=00838060, run size=00000004 bytes, compression=rle
	.fardata.11: load addr=00839f84, load size=00000009 bytes, run addr=00838070, run size=00000004 bytes, compression=rle
	.fardata.12: load addr=00839f90, load size=00000009 bytes, run addr=00838080, run size=00000004 bytes, compression=rle
	.fardata.13: load addr=00839f9c, load size=00000009 bytes, run addr=00838090, run size=00000004 bytes, compression=rle
	.fardata.14: load addr=00839fa8, load size=00000009 bytes, run addr=008380a0, run size=00000004 bytes, compression=rle
	.fardata.6: load addr=00839fb4, load size=00000009 bytes, run addr=00838020, run size=00000004 bytes, compression=rle
	.fardata.7: load addr=00839fc0, load size=00000009 bytes, run addr=00838030, run size=00000004 bytes, compression=rle
	.fardata.8: load addr=00839fcc, load size=00000009 bytes, run addr=00838040, run size=00000004 bytes, compression=rle
	.fardata.9: load addr=00839fd8, load size=00000009 bytes, run addr=00838050, run size=00000004 bytes, compression=rle
	.neardata: load addr=00839fe4, load size=00000009 bytes, run addr=008391ec, run size=00000004 bytes, compression=rle
	.bss: load addr=00839ff0, load size=00000008 bytes, run addr=008391e8, run size=00000004 bytes, compression=zero_init
	.far.1: load addr=00839ff8, load size=00000008 bytes, run addr=008291c0, run size=00009038 bytes, compression=zero_init
	.far.2: load addr=0083a000, load size=00000008 bytes, run addr=00832200, run size=000003a8 bytes, compression=zero_init
	.far.3: load addr=0083a008, load size=00000008 bytes, run addr=008325b0, run size=00000020 bytes, compression=zero_init
	.mySharedMem: load addr=0083a010, load size=00000008 bytes, run addr=80000000, run size=18000180 bytes, compression=zero_init
	.MSMCSRAM: load addr=0083a018, load size=00000007 bytes, run addr=0c0ffffc, run size=00000001 bytes, compression=rle


LINKER GENERATED HANDLER TABLE

__TI_handler_table @ 00839f54 records: 3, size/record: 4, table size: 12
	index: 0, handler: __TI_zero_init
	index: 1, handler: __TI_decompress_rle24
	index: 2, handler: __TI_decompress_none


GLOBAL SYMBOLS: SORTED ALPHABETICALLY BY Name 

address    name
--------   ----
00827fa0   C$$EXIT
00826a98   C$$IO$$
00825cc0   GateMP_Params_init
0081dda0   GateMP_close
00824540   GateMP_create
00827e00   GateMP_delete
00818560   GateMP_enter
00818760   GateMP_leave
00819760   GateMP_open
00811de0   GateMP_openByAddr
00811760   GateMP_sharedMemReq
00823aa0   HOSTclose
0081f960   HOSTlseek
00821260   HOSTopen
00822a20   HOSTread
0081ad20   HOSTrename
00822ae0   HOSTunlink
00822ba0   HOSTwrite
00825d20   HeapMemMP_Params_init
00822c60   HeapMemMP_create
0081a2a0   HeapMemMP_openByAddr
00811080   HeapMemMP_sharedMemReq
00802600   Ipc_attach
008391e8   Ipc_sr0MemorySetup
00813dc0   Ipc_start
00822d20   ListMP_create
00809780   ListMP_getHead
00818960   ListMP_openByAddr
0080f040   ListMP_putTail
00816140   ListMP_sharedMemReq
00805360   MessageQ_put
00827e20   MultiProc_self
0081bf00   MultiProc_setLocalId
00807860   NameServer_add
0080ca80   NameServer_get
0081c080   NameServer_getHandle
00814060   NameServer_getLocal
0081dee0   Notify_attach
0081c200   Notify_intLineRegistered
00806aa0   Notify_registerEvent
008091a0   Notify_registerEventSingle
00808560   Notify_sendEvent
00809d40   Notify_unregisterEventSingle
80000000   SharedMem
0081aec0   SharedRegion_getCacheLineSize
008129e0   SharedRegion_getEntry
0081b060   SharedRegion_getHeap
00812cc0   SharedRegion_getPtr
00814ae0   SharedRegion_getSRPtr
0081b200   SharedRegion_isCacheEnabled
008379f4   TSK_idle
00800000   __ASM__
008390c8   __CIOBUF_
00800090   __ISA__
008000b0   __PLAT__
008000d0   __TARG__
0083a020   __TI_CINIT_Base
0083a0e0   __TI_CINIT_Limit
00839f54   __TI_Handler_Table_Base
00839f60   __TI_Handler_Table_Limit
008390c8   __TI_STACK_END
00001000   __TI_STACK_SIZE
008391ec   __TI_STATIC_BASE
00000001   __TI_args_main
00827fe0   __TI_decompress_none
00828000   __TI_decompress_rle24
00837fdc   __TI_enable_exit_profile_output
ffffffff   __TI_pprof_out_hndl
ffffffff   __TI_prof_data_size
ffffffff   __TI_prof_data_start
008215e0   __TI_zero_init
00800100   __TRDR__
ffffffff   __binit__
0080a300   __c6xabi_divd
00822ea0   __c6xabi_divu
0081b3a0   __c6xabi_divul
00816f80   __c6xabi_divull
00824640   __c6xabi_fixdu
00823b40   __c6xabi_fltulld
00825d80   __c6xabi_frcmpyd_div
00826e00   __c6xabi_isinf
008246c0   __c6xabi_llshl
00825de0   __c6xabi_llshru
00827e40   __c6xabi_negll
00823be0   __c6xabi_remu
ffffffff   __c_args__
00827e60   __cxa_atexit
00822de0   __cxa_finalize
00827e80   __cxa_ia64_exit
00822ea0   __divu
00823be0   __remu
00827ea0   __xdc__init
0083735c   __xdc__init__addr
00826e80   _args_main
00000000   _argsize
0081e020   _auto_init_elf
00823c80   _c_int00
00822f60   _cleanup
00837fd4   _cleanup_ptr
00835540   _ctypes_
00823020   _doflush
00837fd8   _dtors_ptr
00837a38   _ft_end
00837360   _ftable
008377d8   _lock
00827ec0   _nop
0080e320   _printfi
00827f20   _register_lock
00827f40   _register_unlock
008380c8   _stack
00825e40   _subcull
00832390   _tmpnams
008377dc   _unlock
0081f180   _wrt_ok
00827fa0   abort
008247c0   add
00839220   addMatrices_0__implode_displ__0
0083923c   addMatrices_1__implode_displ__0
00839250   addMatrices_2__implode_displ__0
00839204   addMatrices_3__implode_displ__0
00839218   addMatrices_4__implode_displ__0
00839244   addMatrices_5__implode_displ__0
008391f0   addMatrices_6__implode_displ__0
00839258   addMatrices_7__implode_displ__0
008392b0   arrayA_0__arrayA__0
00839284   arrayA_16777216__arrayA__0
0083929c   arrayA_25165824__arrayA__0
008392c4   arrayA_33554432__arrayA__0
008392cc   arrayA_41943040__arrayA__0
00839288   arrayA_50331648__arrayA__0
00839290   arrayA_58720256__arrayA__0
008392c0   arrayA_8388608__arrayA__0
008392c8   arrayA__arrayA__0
00839298   arrayB_0__arrayB__0
008392b8   arrayB_16777216__arrayB__0
00839294   arrayB_25165824__arrayB__0
008392a0   arrayB_33554432__arrayB__0
008392bc   arrayB_41943040__arrayB__0
00839278   arrayB_50331648__arrayB__0
00839260   arrayB_58720256__arrayB__0
008392b4   arrayB_8388608__arrayB__0
00839268   arrayB__arrayB__0
0083926c   arrayC__arrayC_0__0
008392a4   arrayC__arrayC_16777216__0
0083928c   arrayC__arrayC_25165824__0
008392ac   arrayC__arrayC_33554432__0
0083927c   arrayC__arrayC_41943040__0
00839280   arrayC__arrayC_50331648__0
00839270   arrayC__arrayC_58720256__0
008392a8   arrayC__arrayC_8388608__0
00839274   arrayC__arrayC__0
00827fc0   atexit
00821420   atoi
0c0ffffc   barrier
ffffffff   binit
008115f4   busy_barrier
00819ac4   cache_invL1D
00819a74   cache_invL2
00819a28   cache_wbInvL1D
008199d8   cache_wbInvL2
0081998c   cache_wbL1D
00819940   cache_wbL2
008115e4   callbackInterCoreCom
00821500   close
00811458   communicationInit
00815ee0   core0
008225a0   core1
00822660   core2
00822720   core3
008227e0   core4
008228a0   core5
00822960   core6
0080fd00   core7
00823fa0   display
008216c0   exit
008391f8   explode_generateMatrices_arr__0
00839254   explode_generateMatrices_arr__1
0083925c   explode_generateMatrices_arr__10
008391fc   explode_generateMatrices_arr__11
00839208   explode_generateMatrices_arr__12
00839200   explode_generateMatrices_arr__13
00839214   explode_generateMatrices_arr__14
00839224   explode_generateMatrices_arr__15
0083924c   explode_generateMatrices_arr__2
0083922c   explode_generateMatrices_arr__3
00839234   explode_generateMatrices_arr__4
00839238   explode_generateMatrices_arr__5
00839240   explode_generateMatrices_arr__6
00839230   explode_generateMatrices_arr__7
00839248   explode_generateMatrices_arr__8
008391f4   explode_generateMatrices_arr__9
0081f2a0   fclose
0081fa60   fflush
0081e2a0   fputc
008120e0   fputs
00826f40   free
008230e0   fseek
0081f3c0   generate
0083921c   generateMatrices__displayMat__0
0083920c   generateMatrices__explode_ge__0
00839228   generateMatrices__explode_ge__1
00839210   implode_displayMatrices_arra__0
008325b0   interCoreSem
008231a0   lseek
008217a0   ltoa
00821948   main
00824840   malloc
00825ea0   memccpy
008240e0   memcpy
00821960   memset
008391ec   nbSemaphoresToClean
008248c0   printf
00828040   putc
00828060   putchar
00824940   readmsg
00811444   receiveEnd
00811440   receiveStart
00825940   remove
0080ba00   sem_clean
0080beb0   sem_destroy
0080be6c   sem_destroyCallback
0080bdd4   sem_init
0080bcf4   sem_post
0080bbd8   sem_trywait
0080ba98   sem_wait
00832200   semaphoresToClean
00811438   sendEnd
00811400   sendStart
0081c500   setvbuf
00839264   startTime__startTime__0
0083583c   ti_sdo_ipc_GateMP_A_invalidClose__C
008360dc   ti_sdo_ipc_GateMP_A_invalidDelete__C
0083627c   ti_sdo_ipc_GateMP_E_gateUnavailable__C
008362bc   ti_sdo_ipc_GateMP_E_localGate__C
00804b00   ti_sdo_ipc_GateMP_Instance_finalize__F
00800000   ti_sdo_ipc_GateMP_Instance_init__F
008362c0   ti_sdo_ipc_GateMP_LM_create__C
008362c4   ti_sdo_ipc_GateMP_LM_delete__C
008362c8   ti_sdo_ipc_GateMP_LM_enter__C
008362cc   ti_sdo_ipc_GateMP_LM_leave__C
008362d0   ti_sdo_ipc_GateMP_LM_open__C
00836840   ti_sdo_ipc_GateMP_Module_State_0_remoteCustom1Gates__A
00838020   ti_sdo_ipc_GateMP_Module_State_0_remoteCustom2Gates__A
00837a40   ti_sdo_ipc_GateMP_Module_State_0_remoteSystemGates__A
008362d4   ti_sdo_ipc_GateMP_Module__diagsEnabled__C
008362d8   ti_sdo_ipc_GateMP_Module__diagsIncluded__C
008362dc   ti_sdo_ipc_GateMP_Module__diagsMask__C
00836754   ti_sdo_ipc_GateMP_Module__id__C
00836758   ti_sdo_ipc_GateMP_Module__loggerDefined__C
008362e0   ti_sdo_ipc_GateMP_Module__loggerFxn2__C
008362e4   ti_sdo_ipc_GateMP_Module__loggerFxn4__C
008362e8   ti_sdo_ipc_GateMP_Module__loggerObj__C
00837040   ti_sdo_ipc_GateMP_Module__root__V
00837048   ti_sdo_ipc_GateMP_Module__state__V
00835d9c   ti_sdo_ipc_GateMP_Object__DESC__C
008358b8   ti_sdo_ipc_GateMP_Object__PARAMS__C
00821a40   ti_sdo_ipc_GateMP_Object__create__S
00825f00   ti_sdo_ipc_GateMP_Object__delete__S
00828080   ti_sdo_ipc_GateMP_Params__init__S
008280a0   ti_sdo_ipc_GateMP_RemoteCustom1Proxy_Object__create__S
008280c0   ti_sdo_ipc_GateMP_RemoteCustom1Proxy_Object__delete__S
008280e0   ti_sdo_ipc_GateMP_RemoteCustom1Proxy_Params__init__S
00828100   ti_sdo_ipc_GateMP_RemoteCustom1Proxy_Proxy__abstract__S
00828120   ti_sdo_ipc_GateMP_RemoteCustom1Proxy_Proxy__delegate__S
008284c0   ti_sdo_ipc_GateMP_RemoteCustom1Proxy_getReservedMask__E
008284e0   ti_sdo_ipc_GateMP_RemoteCustom1Proxy_query__E
00826200   ti_sdo_ipc_GateMP_RemoteCustom1Proxy_sharedMemReq__E
00828140   ti_sdo_ipc_GateMP_RemoteCustom2Proxy_Object__create__S
00828160   ti_sdo_ipc_GateMP_RemoteCustom2Proxy_Object__delete__S
00828180   ti_sdo_ipc_GateMP_RemoteCustom2Proxy_Params__init__S
008281a0   ti_sdo_ipc_GateMP_RemoteCustom2Proxy_Proxy__abstract__S
008281c0   ti_sdo_ipc_GateMP_RemoteCustom2Proxy_Proxy__delegate__S
00828440   ti_sdo_ipc_GateMP_RemoteCustom2Proxy_getReservedMask__E
00828460   ti_sdo_ipc_GateMP_RemoteCustom2Proxy_query__E
00828480   ti_sdo_ipc_GateMP_RemoteCustom2Proxy_sharedMemReq__E
008281e0   ti_sdo_ipc_GateMP_RemoteSystemProxy_Object__create__S
00828200   ti_sdo_ipc_GateMP_RemoteSystemProxy_Object__delete__S
00828220   ti_sdo_ipc_GateMP_RemoteSystemProxy_Params__init__S
00828240   ti_sdo_ipc_GateMP_RemoteSystemProxy_Proxy__abstract__S
00828260   ti_sdo_ipc_GateMP_RemoteSystemProxy_Proxy__delegate__S
008283a0   ti_sdo_ipc_GateMP_RemoteSystemProxy_getReservedMask__E
008283c0   ti_sdo_ipc_GateMP_RemoteSystemProxy_query__E
008283e0   ti_sdo_ipc_GateMP_RemoteSystemProxy_sharedMemReq__E
00819b20   ti_sdo_ipc_GateMP_attach__E
00819b20   ti_sdo_ipc_GateMP_attach__F
0081d400   ti_sdo_ipc_GateMP_createLocal__E
0081d400   ti_sdo_ipc_GateMP_createLocal__F
00819d00   ti_sdo_ipc_GateMP_getFreeResource__I
00823260   ti_sdo_ipc_GateMP_getRegion0ReservedSize__E
00823260   ti_sdo_ipc_GateMP_getRegion0ReservedSize__F
00828280   ti_sdo_ipc_GateMP_getSharedAddr__E
00828280   ti_sdo_ipc_GateMP_getSharedAddr__F
0081b540   ti_sdo_ipc_GateMP_openRegion0Reserved__E
0081b540   ti_sdo_ipc_GateMP_openRegion0Reserved__F
0080e780   ti_sdo_ipc_GateMP_setRegion0Reserved__E
0080e780   ti_sdo_ipc_GateMP_setRegion0Reserved__F
0081fc60   ti_sdo_ipc_GateMP_start__E
0081fc60   ti_sdo_ipc_GateMP_start__F
008362ec   ti_sdo_ipc_Ipc_A_addrNotCacheAligned__C
008362f0   ti_sdo_ipc_Ipc_A_addrNotInSharedRegion__C
008362f4   ti_sdo_ipc_Ipc_A_internal__C
008362f8   ti_sdo_ipc_Ipc_A_invArgument__C
008362fc   ti_sdo_ipc_Ipc_A_invParam__C
00836300   ti_sdo_ipc_Ipc_A_nullArgument__C
00836304   ti_sdo_ipc_Ipc_A_nullPointer__C
00836308   ti_sdo_ipc_Ipc_E_internal__C
0083630c   ti_sdo_ipc_Ipc_E_nameFailed__C
00836310   ti_sdo_ipc_Ipc_E_versionMismatch__C
00837880   ti_sdo_ipc_Ipc_Module_State_0_procEntry__A
00836314   ti_sdo_ipc_Ipc_Module__diagsEnabled__C
00836318   ti_sdo_ipc_Ipc_Module__diagsIncluded__C
0083631c   ti_sdo_ipc_Ipc_Module__diagsMask__C
0083675c   ti_sdo_ipc_Ipc_Module__id__C
00837090   ti_sdo_ipc_Ipc_Module__state__V
00836760   ti_sdo_ipc_Ipc_generateSlaveDataForHost__C
00836320   ti_sdo_ipc_Ipc_numUserFxns__C
0080ebe0   ti_sdo_ipc_Ipc_procSyncFinish__I
0080cfe0   ti_sdo_ipc_Ipc_procSyncStart__I
00836324   ti_sdo_ipc_Ipc_procSync__C
00836328   ti_sdo_ipc_Ipc_userFxns__C
008163a0   ti_sdo_ipc_ListMP_Instance_finalize__F
00804260   ti_sdo_ipc_ListMP_Instance_init__F
0083632c   ti_sdo_ipc_ListMP_Module__diagsEnabled__C
00836330   ti_sdo_ipc_ListMP_Module__diagsIncluded__C
00836334   ti_sdo_ipc_ListMP_Module__diagsMask__C
00836764   ti_sdo_ipc_ListMP_Module__id__C
0083709c   ti_sdo_ipc_ListMP_Module__root__V
008370a4   ti_sdo_ipc_ListMP_Module__state__V
00835dbc   ti_sdo_ipc_ListMP_Object__DESC__C
008359e0   ti_sdo_ipc_ListMP_Object__PARAMS__C
00821b20   ti_sdo_ipc_ListMP_Object__create__S
00825f60   ti_sdo_ipc_ListMP_Object__delete__S
008282a0   ti_sdo_ipc_ListMP_Params__init__S
00836338   ti_sdo_ipc_MessageQ_A_invalidMsg__C
0083633c   ti_sdo_ipc_MessageQ_A_invalidObj__C
00836340   ti_sdo_ipc_MessageQ_A_invalidQueueId__C
00836344   ti_sdo_ipc_MessageQ_A_procIdInvalid__C
00836348   ti_sdo_ipc_MessageQ_A_unregisteredTransport__C
0083634c   ti_sdo_ipc_MessageQ_Instance_State_highList__O
00836350   ti_sdo_ipc_MessageQ_Instance_State_normalList__O
00836354   ti_sdo_ipc_MessageQ_LM_putLocal__C
00837f00   ti_sdo_ipc_MessageQ_Module_State_0_heaps__A
00837e10   ti_sdo_ipc_MessageQ_Module_State_0_transports__A
00836358   ti_sdo_ipc_MessageQ_Module__diagsEnabled__C
0083635c   ti_sdo_ipc_MessageQ_Module__diagsIncluded__C
00836360   ti_sdo_ipc_MessageQ_Module__diagsMask__C
00836768   ti_sdo_ipc_MessageQ_Module__id__C
0083676c   ti_sdo_ipc_MessageQ_Module__loggerDefined__C
00836364   ti_sdo_ipc_MessageQ_Module__loggerFxn4__C
00836368   ti_sdo_ipc_MessageQ_Module__loggerObj__C
008370a8   ti_sdo_ipc_MessageQ_Module__root__V
008370b0   ti_sdo_ipc_MessageQ_Module__state__V
0081f600   ti_sdo_ipc_MessageQ_Module_startup__E
0081f600   ti_sdo_ipc_MessageQ_Module_startup__F
0083636c   ti_sdo_ipc_MessageQ_Object__count__C
008282c0   ti_sdo_ipc_MessageQ_Object__get__S
00820760   ti_sdo_ipc_MessageQ_SetupTransportProxy_attach__E
008285e0   ti_sdo_ipc_MessageQ_SetupTransportProxy_isRegistered__E
008263e0   ti_sdo_ipc_MessageQ_SetupTransportProxy_sharedMemReq__E
0081c800   ti_sdo_ipc_MessageQ_registerTransport__E
0081c800   ti_sdo_ipc_MessageQ_registerTransport__F
0081d560   ti_sdo_ipc_MessageQ_unregisterTransport__E
0081d560   ti_sdo_ipc_MessageQ_unregisterTransport__F
00836370   ti_sdo_ipc_Notify_A_alreadyRegistered__C
00836374   ti_sdo_ipc_Notify_A_internal__C
00836378   ti_sdo_ipc_Notify_A_invArgument__C
0083637c   ti_sdo_ipc_Notify_A_notRegistered__C
00836380   ti_sdo_ipc_Notify_A_reservedEvent__C
0081fd60   ti_sdo_ipc_Notify_Instance_finalize__F
00810100   ti_sdo_ipc_Notify_Instance_init__F
008282e0   ti_sdo_ipc_Notify_Module_GateProxy_enter__E
00828300   ti_sdo_ipc_Notify_Module_GateProxy_leave__E
00828ac0   ti_sdo_ipc_Notify_Module_GateProxy_query__E
00838030   ti_sdo_ipc_Notify_Module_State_0_notifyHandles_0__A
00838040   ti_sdo_ipc_Notify_Module_State_0_notifyHandles_1__A
00838050   ti_sdo_ipc_Notify_Module_State_0_notifyHandles_2__A
00838060   ti_sdo_ipc_Notify_Module_State_0_notifyHandles_3__A
00838070   ti_sdo_ipc_Notify_Module_State_0_notifyHandles_4__A
00838080   ti_sdo_ipc_Notify_Module_State_0_notifyHandles_5__A
00838090   ti_sdo_ipc_Notify_Module_State_0_notifyHandles_6__A
008380a0   ti_sdo_ipc_Notify_Module_State_0_notifyHandles_7__A
00837f20   ti_sdo_ipc_Notify_Module_State_0_notifyHandles__A
00836384   ti_sdo_ipc_Notify_Module__diagsEnabled__C
00836388   ti_sdo_ipc_Notify_Module__diagsIncluded__C
0083638c   ti_sdo_ipc_Notify_Module__diagsMask__C
00836390   ti_sdo_ipc_Notify_Module__gateObj__C
00836770   ti_sdo_ipc_Notify_Module__id__C
008370cc   ti_sdo_ipc_Notify_Module__root__V
008370d4   ti_sdo_ipc_Notify_Module__state__V
0081c980   ti_sdo_ipc_Notify_Module_startup__E
0081c980   ti_sdo_ipc_Notify_Module_startup__F
00835ddc   ti_sdo_ipc_Notify_Object__DESC__C
00836120   ti_sdo_ipc_Notify_Object__PARAMS__C
0081fe60   ti_sdo_ipc_Notify_Object__create__S
00836394   ti_sdo_ipc_Notify_Object__heap__C
00821c00   ti_sdo_ipc_Notify_SetupProxy_attach__E
00828360   ti_sdo_ipc_Notify_SetupProxy_numIntLines__E
00825fc0   ti_sdo_ipc_Notify_SetupProxy_sharedMemReq__E
00823320   ti_sdo_ipc_Notify_execMany__I
0081e520   ti_sdo_ipc_Notify_exec__E
0081e520   ti_sdo_ipc_Notify_exec__F
00836398   ti_sdo_ipc_Notify_numEvents__C
00836774   ti_sdo_ipc_Notify_numLines__C
00836778   ti_sdo_ipc_Notify_reservedEvents__C
0083639c   ti_sdo_ipc_Notify_sendEventPollCount__C
008363a0   ti_sdo_ipc_SharedRegion_A_addrOutOfRange__C
008363a4   ti_sdo_ipc_SharedRegion_A_idTooLarge__C
008363a8   ti_sdo_ipc_SharedRegion_A_noHeap__C
008363ac   ti_sdo_ipc_SharedRegion_A_region0Invalid__C
008363b0   ti_sdo_ipc_SharedRegion_A_regionInvalid__C
008363b4   ti_sdo_ipc_SharedRegion_A_reserveTooMuch__C
008363b8   ti_sdo_ipc_SharedRegion_INVALIDSRPTR__C
00837920   ti_sdo_ipc_SharedRegion_Module_State_0_regions__A
008363bc   ti_sdo_ipc_SharedRegion_Module__diagsEnabled__C
008363c0   ti_sdo_ipc_SharedRegion_Module__diagsIncluded__C
008363c4   ti_sdo_ipc_SharedRegion_Module__diagsMask__C
0083677c   ti_sdo_ipc_SharedRegion_Module__id__C
008370dc   ti_sdo_ipc_SharedRegion_Module__state__V
0081ff60   ti_sdo_ipc_SharedRegion_attach__E
0081ff60   ti_sdo_ipc_SharedRegion_attach__F
008363c8   ti_sdo_ipc_SharedRegion_cacheLineSize__C
00820060   ti_sdo_ipc_SharedRegion_clearReservedMemory__E
00820060   ti_sdo_ipc_SharedRegion_clearReservedMemory__F
00836780   ti_sdo_ipc_SharedRegion_numEntries__C
008363cc   ti_sdo_ipc_SharedRegion_numOffsetBits__C
008363d0   ti_sdo_ipc_SharedRegion_offsetMask__C
00810900   ti_sdo_ipc_SharedRegion_reserveMemory__E
00810900   ti_sdo_ipc_SharedRegion_reserveMemory__F
0080ae80   ti_sdo_ipc_SharedRegion_start__E
0080ae80   ti_sdo_ipc_SharedRegion_start__F
00836784   ti_sdo_ipc_SharedRegion_translate__C
008363d4   ti_sdo_ipc_family_c647x_Interrupt_INTERDSPINT__C
008363d8   ti_sdo_ipc_family_c647x_Interrupt_IPCAR0__C
008363dc   ti_sdo_ipc_family_c647x_Interrupt_IPCGR0__C
008363e0   ti_sdo_ipc_family_c647x_Interrupt_KICK0__C
008363e4   ti_sdo_ipc_family_c647x_Interrupt_KICK1__C
00837e50   ti_sdo_ipc_family_c647x_Interrupt_Module_State_0_fxnTable__A
008370e0   ti_sdo_ipc_family_c647x_Interrupt_Module__state__V
00820160   ti_sdo_ipc_family_c647x_Interrupt_Module_startup__E
00820160   ti_sdo_ipc_family_c647x_Interrupt_Module_startup__F
00836788   ti_sdo_ipc_family_c647x_Interrupt_enableKick__C
00826fc0   ti_sdo_ipc_family_c647x_Interrupt_intClear__E
00828320   ti_sdo_ipc_family_c647x_Interrupt_intDisable__E
00828340   ti_sdo_ipc_family_c647x_Interrupt_intEnable__E
0081f720   ti_sdo_ipc_family_c647x_Interrupt_intRegister__E
00827000   ti_sdo_ipc_family_c647x_Interrupt_intSend__E
008233e0   ti_sdo_ipc_family_c647x_Interrupt_intShmStub__I
00824180   ti_sdo_ipc_family_c647x_Interrupt_intUnregister__E
008363e8   ti_sdo_ipc_family_c647x_MultiProcSetup_A_invalidProcessor__C
008363ec   ti_sdo_ipc_family_c647x_MultiProcSetup_Module__diagsEnabled__C
008363f0   ti_sdo_ipc_family_c647x_MultiProcSetup_Module__diagsIncluded__C
008363f4   ti_sdo_ipc_family_c647x_MultiProcSetup_Module__diagsMask__C
0083678c   ti_sdo_ipc_family_c647x_MultiProcSetup_Module__id__C
00819160   ti_sdo_ipc_family_c647x_MultiProcSetup_init__I
00836280   ti_sdo_ipc_family_c647x_MultiProcSetup_procMap__A
008363f8   ti_sdo_ipc_family_c647x_MultiProcSetup_procMap__C
00821c00   ti_sdo_ipc_family_c647x_NotifySetup_attach__E
008363fc   ti_sdo_ipc_family_c647x_NotifySetup_dspIntVectId__C
00828360   ti_sdo_ipc_family_c647x_NotifySetup_numIntLines__E
00825fc0   ti_sdo_ipc_family_c647x_NotifySetup_sharedMemReq__E
00836400   ti_sdo_ipc_gates_GateHWSem_A_invSemNum__C
00827040   ti_sdo_ipc_gates_GateHWSem_Handle__label__S
0081d6c0   ti_sdo_ipc_gates_GateHWSem_Instance_init__F
00835a0c   ti_sdo_ipc_gates_GateHWSem_Module__FXNS__C
00836404   ti_sdo_ipc_gates_GateHWSem_Module__diagsEnabled__C
00836408   ti_sdo_ipc_gates_GateHWSem_Module__diagsIncluded__C
0083640c   ti_sdo_ipc_gates_GateHWSem_Module__diagsMask__C
00836790   ti_sdo_ipc_gates_GateHWSem_Module__id__C
008370e8   ti_sdo_ipc_gates_GateHWSem_Module__root__V
00820260   ti_sdo_ipc_gates_GateHWSem_Module_startup__E
00820260   ti_sdo_ipc_gates_GateHWSem_Module_startup__F
00835dfc   ti_sdo_ipc_gates_GateHWSem_Object__DESC__C
00835ba8   ti_sdo_ipc_gates_GateHWSem_Object__PARAMS__C
008249c0   ti_sdo_ipc_gates_GateHWSem_Object__create__S
00826020   ti_sdo_ipc_gates_GateHWSem_Object__delete__S
00828380   ti_sdo_ipc_gates_GateHWSem_Params__init__S
00836410   ti_sdo_ipc_gates_GateHWSem_baseAddr__C
00821ce0   ti_sdo_ipc_gates_GateHWSem_enter__E
008283a0   ti_sdo_ipc_gates_GateHWSem_getReservedMask__E
00826080   ti_sdo_ipc_gates_GateHWSem_leave__E
00836414   ti_sdo_ipc_gates_GateHWSem_numSems__C
008283c0   ti_sdo_ipc_gates_GateHWSem_query__E
008283c0   ti_sdo_ipc_gates_GateHWSem_query__F
00836420   ti_sdo_ipc_gates_GateHWSem_reservedMaskArr__A
00836418   ti_sdo_ipc_gates_GateHWSem_reservedMaskArr__C
008283e0   ti_sdo_ipc_gates_GateHWSem_sharedMemReq__E
0083641c   ti_sdo_ipc_gates_GateMPSupportNull_A_invalidAction__C
00827080   ti_sdo_ipc_gates_GateMPSupportNull_Handle__label__S
00828400   ti_sdo_ipc_gates_GateMPSupportNull_Instance_init__F
00835a38   ti_sdo_ipc_gates_GateMPSupportNull_Module__FXNS__C
00836424   ti_sdo_ipc_gates_GateMPSupportNull_Module__diagsEnabled__C
00836428   ti_sdo_ipc_gates_GateMPSupportNull_Module__diagsIncluded__C
0083642c   ti_sdo_ipc_gates_GateMPSupportNull_Module__diagsMask__C
00836794   ti_sdo_ipc_gates_GateMPSupportNull_Module__id__C
008370f0   ti_sdo_ipc_gates_GateMPSupportNull_Module__root__V
00835e1c   ti_sdo_ipc_gates_GateMPSupportNull_Object__DESC__C
00835bcc   ti_sdo_ipc_gates_GateMPSupportNull_Object__PARAMS__C
00824a40   ti_sdo_ipc_gates_GateMPSupportNull_Object__create__S
008260e0   ti_sdo_ipc_gates_GateMPSupportNull_Object__delete__S
00828420   ti_sdo_ipc_gates_GateMPSupportNull_Params__init__S
00836430   ti_sdo_ipc_gates_GateMPSupportNull_action__C
00820360   ti_sdo_ipc_gates_GateMPSupportNull_enter__E
00828440   ti_sdo_ipc_gates_GateMPSupportNull_getReservedMask__E
00820460   ti_sdo_ipc_gates_GateMPSupportNull_leave__E
00828460   ti_sdo_ipc_gates_GateMPSupportNull_query__E
00828460   ti_sdo_ipc_gates_GateMPSupportNull_query__F
00828480   ti_sdo_ipc_gates_GateMPSupportNull_sharedMemReq__E
00836434   ti_sdo_ipc_gates_GatePeterson_E_gateRemotelyOpened__C
008270c0   ti_sdo_ipc_gates_GatePeterson_Handle__label__S
00826140   ti_sdo_ipc_gates_GatePeterson_Instance_finalize__F
0080da00   ti_sdo_ipc_gates_GatePeterson_Instance_init__F
00835a64   ti_sdo_ipc_gates_GatePeterson_Module__FXNS__C
00836438   ti_sdo_ipc_gates_GatePeterson_Module__diagsEnabled__C
0083643c   ti_sdo_ipc_gates_GatePeterson_Module__diagsIncluded__C
00836440   ti_sdo_ipc_gates_GatePeterson_Module__diagsMask__C
00836798   ti_sdo_ipc_gates_GatePeterson_Module__id__C
008370f8   ti_sdo_ipc_gates_GatePeterson_Module__root__V
00835e3c   ti_sdo_ipc_gates_GatePeterson_Object__DESC__C
00835bf0   ti_sdo_ipc_gates_GatePeterson_Object__PARAMS__C
00820560   ti_sdo_ipc_gates_GatePeterson_Object__create__S
008261a0   ti_sdo_ipc_gates_GatePeterson_Object__delete__S
008284a0   ti_sdo_ipc_gates_GatePeterson_Params__init__S
0081cb00   ti_sdo_ipc_gates_GatePeterson_enter__E
008284c0   ti_sdo_ipc_gates_GatePeterson_getReservedMask__E
00824220   ti_sdo_ipc_gates_GatePeterson_leave__E
00836444   ti_sdo_ipc_gates_GatePeterson_numInstances__C
008284e0   ti_sdo_ipc_gates_GatePeterson_query__E
008284e0   ti_sdo_ipc_gates_GatePeterson_query__F
00826200   ti_sdo_ipc_gates_GatePeterson_sharedMemReq__E
00837100   ti_sdo_ipc_heaps_HeapBufMP_Module__root__V
00837108   ti_sdo_ipc_heaps_HeapBufMP_Module__state__V
00836448   ti_sdo_ipc_heaps_HeapMemMP_A_align__C
0083644c   ti_sdo_ipc_heaps_HeapMemMP_A_heapSize__C
00836450   ti_sdo_ipc_heaps_HeapMemMP_A_invalidFree__C
00836454   ti_sdo_ipc_heaps_HeapMemMP_A_zeroBlock__C
00836458   ti_sdo_ipc_heaps_HeapMemMP_E_memory__C
00827100   ti_sdo_ipc_heaps_HeapMemMP_Handle__label__S
00816600   ti_sdo_ipc_heaps_HeapMemMP_Instance_finalize__F
00805ba0   ti_sdo_ipc_heaps_HeapMemMP_Instance_init__F
00835a90   ti_sdo_ipc_heaps_HeapMemMP_Module__FXNS__C
0083645c   ti_sdo_ipc_heaps_HeapMemMP_Module__diagsEnabled__C
00836460   ti_sdo_ipc_heaps_HeapMemMP_Module__diagsIncluded__C
00836464   ti_sdo_ipc_heaps_HeapMemMP_Module__diagsMask__C
0083679c   ti_sdo_ipc_heaps_HeapMemMP_Module__id__C
0083710c   ti_sdo_ipc_heaps_HeapMemMP_Module__root__V
00837114   ti_sdo_ipc_heaps_HeapMemMP_Module__state__V
00835e5c   ti_sdo_ipc_heaps_HeapMemMP_Object__DESC__C
00835954   ti_sdo_ipc_heaps_HeapMemMP_Object__PARAMS__C
00821dc0   ti_sdo_ipc_heaps_HeapMemMP_Object__create__S
00826260   ti_sdo_ipc_heaps_HeapMemMP_Object__delete__S
00828500   ti_sdo_ipc_heaps_HeapMemMP_Params__init__S
008011c0   ti_sdo_ipc_heaps_HeapMemMP_alloc__E
00801c20   ti_sdo_ipc_heaps_HeapMemMP_free__E
0080f480   ti_sdo_ipc_heaps_HeapMemMP_getStats__E
00828520   ti_sdo_ipc_heaps_HeapMemMP_isBlocking__E
00828520   ti_sdo_ipc_heaps_HeapMemMP_isBlocking__F
0080f8c0   ti_sdo_ipc_heaps_HeapMemMP_postInit__I
00836468   ti_sdo_ipc_interfaces_IGateMPSupport_Interface__BASE__C
0083646c   ti_sdo_ipc_interfaces_IMessageQTransport_Interface__BASE__C
00836470   ti_sdo_ipc_interfaces_INotifyDriver_Interface__BASE__C
00827140   ti_sdo_ipc_notifyDrivers_NotifyDriverShm_Handle__label__S
008242c0   ti_sdo_ipc_notifyDrivers_NotifyDriverShm_Instance_finalize__F
0080d520   ti_sdo_ipc_notifyDrivers_NotifyDriverShm_Instance_init__F
00826fc0   ti_sdo_ipc_notifyDrivers_NotifyDriverShm_InterruptProxy_intClear__E
00828320   ti_sdo_ipc_notifyDrivers_NotifyDriverShm_InterruptProxy_intDisable__E
00828340   ti_sdo_ipc_notifyDrivers_NotifyDriverShm_InterruptProxy_intEnable__E
0081f720   ti_sdo_ipc_notifyDrivers_NotifyDriverShm_InterruptProxy_intRegister__E
00827000   ti_sdo_ipc_notifyDrivers_NotifyDriverShm_InterruptProxy_intSend__E
00824180   ti_sdo_ipc_notifyDrivers_NotifyDriverShm_InterruptProxy_intUnregister__E
00835880   ti_sdo_ipc_notifyDrivers_NotifyDriverShm_Module__FXNS__C
00836474   ti_sdo_ipc_notifyDrivers_NotifyDriverShm_Module__diagsEnabled__C
00836478   ti_sdo_ipc_notifyDrivers_NotifyDriverShm_Module__diagsIncluded__C
0083647c   ti_sdo_ipc_notifyDrivers_NotifyDriverShm_Module__diagsMask__C
008367a0   ti_sdo_ipc_notifyDrivers_NotifyDriverShm_Module__id__C
00837118   ti_sdo_ipc_notifyDrivers_NotifyDriverShm_Module__root__V
00835e7c   ti_sdo_ipc_notifyDrivers_NotifyDriverShm_Object__DESC__C
008358ec   ti_sdo_ipc_notifyDrivers_NotifyDriverShm_Object__PARAMS__C
00821ea0   ti_sdo_ipc_notifyDrivers_NotifyDriverShm_Object__create__S
008262c0   ti_sdo_ipc_notifyDrivers_NotifyDriverShm_Object__delete__S
00836480   ti_sdo_ipc_notifyDrivers_NotifyDriverShm_Object__heap__C
00828540   ti_sdo_ipc_notifyDrivers_NotifyDriverShm_Params__init__S
00816860   ti_sdo_ipc_notifyDrivers_NotifyDriverShm_disableEvent__E
00827180   ti_sdo_ipc_notifyDrivers_NotifyDriverShm_disable__E
0081b6e0   ti_sdo_ipc_notifyDrivers_NotifyDriverShm_enableEvent__E
008271c0   ti_sdo_ipc_notifyDrivers_NotifyDriverShm_enable__E
00813b00   ti_sdo_ipc_notifyDrivers_NotifyDriverShm_isr__I
0081a620   ti_sdo_ipc_notifyDrivers_NotifyDriverShm_registerEvent__E
00819360   ti_sdo_ipc_notifyDrivers_NotifyDriverShm_sendEvent__E
00826320   ti_sdo_ipc_notifyDrivers_NotifyDriverShm_setNotifyHandle__E
00815260   ti_sdo_ipc_notifyDrivers_NotifyDriverShm_sharedMemReq__E
00815260   ti_sdo_ipc_notifyDrivers_NotifyDriverShm_sharedMemReq__F
0081b880   ti_sdo_ipc_notifyDrivers_NotifyDriverShm_unregisterEvent__E
00836484   ti_sdo_ipc_nsremote_NameServerRemoteNotify_A_invalidValueLen__C
00827200   ti_sdo_ipc_nsremote_NameServerRemoteNotify_Handle__label__S
00836488   ti_sdo_ipc_nsremote_NameServerRemoteNotify_Instance_State_semMultiBlock__O
0083648c   ti_sdo_ipc_nsremote_NameServerRemoteNotify_Instance_State_semRemoteWait__O
00836490   ti_sdo_ipc_nsremote_NameServerRemoteNotify_Instance_State_swiObj__O
0081f840   ti_sdo_ipc_nsremote_NameServerRemoteNotify_Instance_finalize__F
008071a0   ti_sdo_ipc_nsremote_NameServerRemoteNotify_Instance_init__F
00835ab8   ti_sdo_ipc_nsremote_NameServerRemoteNotify_Module__FXNS__C
00836494   ti_sdo_ipc_nsremote_NameServerRemoteNotify_Module__diagsEnabled__C
00836498   ti_sdo_ipc_nsremote_NameServerRemoteNotify_Module__diagsIncluded__C
0083649c   ti_sdo_ipc_nsremote_NameServerRemoteNotify_Module__diagsMask__C
008367a4   ti_sdo_ipc_nsremote_NameServerRemoteNotify_Module__id__C
00837120   ti_sdo_ipc_nsremote_NameServerRemoteNotify_Module__root__V
00835e9c   ti_sdo_ipc_nsremote_NameServerRemoteNotify_Object__DESC__C
00835ebc   ti_sdo_ipc_nsremote_NameServerRemoteNotify_Object__PARAMS__C
00820660   ti_sdo_ipc_nsremote_NameServerRemoteNotify_Object__create__S
00826380   ti_sdo_ipc_nsremote_NameServerRemoteNotify_Object__delete__S
00828560   ti_sdo_ipc_nsremote_NameServerRemoteNotify_Object__first__S
00828580   ti_sdo_ipc_nsremote_NameServerRemoteNotify_Object__next__S
008285a0   ti_sdo_ipc_nsremote_NameServerRemoteNotify_Params__init__S
0081ba20   ti_sdo_ipc_nsremote_NameServerRemoteNotify_attach__E
008285c0   ti_sdo_ipc_nsremote_NameServerRemoteNotify_cbFxn__I
00824ac0   ti_sdo_ipc_nsremote_NameServerRemoteNotify_detach__E
0080bf80   ti_sdo_ipc_nsremote_NameServerRemoteNotify_get__E
0080bf80   ti_sdo_ipc_nsremote_NameServerRemoteNotify_get__F
008364a0   ti_sdo_ipc_nsremote_NameServerRemoteNotify_notifyEventId__C
00827240   ti_sdo_ipc_nsremote_NameServerRemoteNotify_sharedMemReq__E
00811aa0   ti_sdo_ipc_nsremote_NameServerRemoteNotify_swiFxn__I
008364a4   ti_sdo_ipc_nsremote_NameServerRemoteNotify_timeout__C
00837f40   ti_sdo_ipc_transports_TransportShmSetup_Module_State_0_handles__A
00837130   ti_sdo_ipc_transports_TransportShmSetup_Module__state__V
00820760   ti_sdo_ipc_transports_TransportShmSetup_attach__E
008285e0   ti_sdo_ipc_transports_TransportShmSetup_isRegistered__E
008364a8   ti_sdo_ipc_transports_TransportShmSetup_priority__C
008263e0   ti_sdo_ipc_transports_TransportShmSetup_sharedMemReq__E
00827280   ti_sdo_ipc_transports_TransportShm_Handle__label__S
008364ac   ti_sdo_ipc_transports_TransportShm_Instance_State_swiObj__O
00819560   ti_sdo_ipc_transports_TransportShm_Instance_finalize__F
00803940   ti_sdo_ipc_transports_TransportShm_Instance_init__F
00835ae0   ti_sdo_ipc_transports_TransportShm_Module__FXNS__C
008364b0   ti_sdo_ipc_transports_TransportShm_Module__diagsEnabled__C
008364b4   ti_sdo_ipc_transports_TransportShm_Module__diagsIncluded__C
008364b8   ti_sdo_ipc_transports_TransportShm_Module__diagsMask__C
008367a8   ti_sdo_ipc_transports_TransportShm_Module__id__C
00837128   ti_sdo_ipc_transports_TransportShm_Module__root__V
00835edc   ti_sdo_ipc_transports_TransportShm_Object__DESC__C
00835b08   ti_sdo_ipc_transports_TransportShm_Object__PARAMS__C
00820860   ti_sdo_ipc_transports_TransportShm_Object__create__S
00826440   ti_sdo_ipc_transports_TransportShm_Object__delete__S
00828600   ti_sdo_ipc_transports_TransportShm_Params__init__S
00828620   ti_sdo_ipc_transports_TransportShm_control__E
00828640   ti_sdo_ipc_transports_TransportShm_getStatus__E
008367ac   ti_sdo_ipc_transports_TransportShm_notifyEventId__C
00828660   ti_sdo_ipc_transports_TransportShm_notifyFxn__I
008123e0   ti_sdo_ipc_transports_TransportShm_openByAddr__E
008123e0   ti_sdo_ipc_transports_TransportShm_openByAddr__F
0080c500   ti_sdo_ipc_transports_TransportShm_put__E
00828680   ti_sdo_ipc_transports_TransportShm_setErrFxn__E
00828680   ti_sdo_ipc_transports_TransportShm_setErrFxn__F
0081d820   ti_sdo_ipc_transports_TransportShm_sharedMemReq__E
0081d820   ti_sdo_ipc_transports_TransportShm_sharedMemReq__F
00824b40   ti_sdo_ipc_transports_TransportShm_swiFxn__I
008364bc   ti_sdo_utils_INameServerRemote_Interface__BASE__C
008286a0   ti_sdo_utils_List_Instance_init__F
00837134   ti_sdo_utils_List_Module__root__V
00835efc   ti_sdo_utils_List_Object__DESC__C
00836138   ti_sdo_utils_List_Object__PARAMS__C
00824bc0   ti_sdo_utils_List_Object__create__S
008286c0   ti_sdo_utils_List_Object__destruct__S
008286e0   ti_sdo_utils_List_Object__get__S
008364c0   ti_sdo_utils_MultiProc_A_invalidMultiProcId__C
008364c4   ti_sdo_utils_MultiProc_Module__diagsEnabled__C
008364c8   ti_sdo_utils_MultiProc_Module__diagsIncluded__C
008364cc   ti_sdo_utils_MultiProc_Module__diagsMask__C
008367b0   ti_sdo_utils_MultiProc_Module__id__C
0083713c   ti_sdo_utils_MultiProc_Module__state__V
00828700   ti_sdo_utils_MultiProc_getClusterId__E
00828700   ti_sdo_utils_MultiProc_getClusterId__F
008367b4   ti_sdo_utils_MultiProc_numProcessors__C
008367b8   ti_sdo_utils_MultiProc_numProcsInCluster__C
00836290   ti_sdo_utils_MultiProc_procIdList__A
008364d0   ti_sdo_utils_MultiProc_procIdList__C
00837150   ti_sdo_utils_NameServerRemoteNull_Module__root__V
008364d4   ti_sdo_utils_NameServer_A_invArgument__C
008364d8   ti_sdo_utils_NameServer_A_invalidLen__C
008364dc   ti_sdo_utils_NameServer_E_entryExists__C
008364e0   ti_sdo_utils_NameServer_E_maxReached__C
008364e4   ti_sdo_utils_NameServer_Instance_State_freeList__O
008364e8   ti_sdo_utils_NameServer_Instance_State_nameList__O
008291c0   ti_sdo_utils_NameServer_Module_State_0_nsRemoteHandle__A
008364ec   ti_sdo_utils_NameServer_Module__diagsEnabled__C
008364f0   ti_sdo_utils_NameServer_Module__diagsIncluded__C
008364f4   ti_sdo_utils_NameServer_Module__diagsMask__C
008367bc   ti_sdo_utils_NameServer_Module__id__C
00837140   ti_sdo_utils_NameServer_Module__root__V
008272c0   ti_sdo_utils_NameServer_Module__startupDone__F
008272c0   ti_sdo_utils_NameServer_Module__startupDone__S
00837148   ti_sdo_utils_NameServer_Module__state__V
0081cc80   ti_sdo_utils_NameServer_Module_startup__E
0081cc80   ti_sdo_utils_NameServer_Module_startup__F
008364f8   ti_sdo_utils_NameServer_Object__count__C
00828720   ti_sdo_utils_NameServer_Object__first__S
00827300   ti_sdo_utils_NameServer_Object__get__S
00828740   ti_sdo_utils_NameServer_Object__next__S
008376c0   ti_sdo_utils_NameServer_Object__table__V
0081ba20   ti_sdo_utils_NameServer_SetupProxy_attach__E
00824ac0   ti_sdo_utils_NameServer_SetupProxy_detach__E
00827240   ti_sdo_utils_NameServer_SetupProxy_sharedMemReq__E
0081d980   ti_sdo_utils_NameServer_isRegistered__E
0081dae0   ti_sdo_utils_NameServer_registerRemoteDriver__E
008367c0   ti_sdo_utils_NameServer_singleProcessor__C
0081dc40   ti_sdo_utils_NameServer_unregisterRemoteDriver__E
008364fc   ti_sysbios_BIOS_Module__diagsEnabled__C
00836500   ti_sysbios_BIOS_Module__diagsIncluded__C
00836504   ti_sysbios_BIOS_Module__diagsMask__C
008367c4   ti_sysbios_BIOS_Module__id__C
00837158   ti_sysbios_BIOS_Module__state__V
00828760   ti_sysbios_BIOS_RtsGateProxy_enter__E
00828780   ti_sysbios_BIOS_RtsGateProxy_leave__E
00828a80   ti_sysbios_BIOS_RtsGateProxy_query__E
008234a0   ti_sysbios_BIOS_errorRaiseHook__I
00824c40   ti_sysbios_BIOS_exitFunc__I
00824cc0   ti_sysbios_BIOS_exit__E
008287a0   ti_sysbios_BIOS_getCpuFreq__E
008287c0   ti_sysbios_BIOS_getThreadType__E
00836508   ti_sysbios_BIOS_installedErrorHook__C
008264a0   ti_sysbios_BIOS_registerRTSLock__I
008287e0   ti_sysbios_BIOS_setThreadType__E
00827340   ti_sysbios_BIOS_startFunc__I
00827380   ti_sysbios_BIOS_start__E
00828800   ti_sysbios_family_c62_TaskSupport_Module__startupDone__S
00826ec0   ti_sysbios_family_c62_TaskSupport_buildTaskStack
00828820   ti_sysbios_family_c62_TaskSupport_checkStack__E
00827f60   ti_sysbios_family_c62_TaskSupport_glue
00824d40   ti_sysbios_family_c62_TaskSupport_start__E
00824740   ti_sysbios_family_c62_TaskSupport_swap__E
0083650c   ti_sysbios_family_c64p_Exception_E_exceptionMin__C
008367c8   ti_sysbios_family_c64p_Exception_Module__id__C
00837174   ti_sysbios_family_c64p_Exception_Module__state__V
00824dc0   ti_sysbios_family_c64p_Exception_Module_startup__E
00824dc0   ti_sysbios_family_c64p_Exception_Module_startup__F
0081c680   ti_sysbios_family_c64p_Exception_dispatch__E
00836510   ti_sysbios_family_c64p_Exception_exceptionHook__C
00836514   ti_sysbios_family_c64p_Exception_externalHook__C
00806320   ti_sysbios_family_c64p_Exception_handler__I
00817640   ti_sysbios_family_c64p_Exception_internalHandler__I
00836518   ti_sysbios_family_c64p_Exception_internalHook__C
0083651c   ti_sysbios_family_c64p_Exception_nmiHook__C
00839400   ti_sysbios_family_c64p_Hwi0
00839420   ti_sysbios_family_c64p_Hwi1
00839540   ti_sysbios_family_c64p_Hwi10
00839560   ti_sysbios_family_c64p_Hwi11
00839580   ti_sysbios_family_c64p_Hwi12
008395a0   ti_sysbios_family_c64p_Hwi13
008395c0   ti_sysbios_family_c64p_Hwi14
008395e0   ti_sysbios_family_c64p_Hwi15
00839440   ti_sysbios_family_c64p_Hwi2
00839460   ti_sysbios_family_c64p_Hwi3
00839480   ti_sysbios_family_c64p_Hwi4
008394a0   ti_sysbios_family_c64p_Hwi5
008394c0   ti_sysbios_family_c64p_Hwi6
008394e0   ti_sysbios_family_c64p_Hwi7
00839500   ti_sysbios_family_c64p_Hwi8
00839520   ti_sysbios_family_c64p_Hwi9
00836520   ti_sysbios_family_c64p_Hwi_E_alreadyDefined__C
00836524   ti_sysbios_family_c64p_Hwi_E_handleNotFound__C
00821f80   ti_sysbios_family_c64p_Hwi_Instance_finalize__F
00822060   ti_sysbios_family_c64p_Hwi_Instance_init__F
00836528   ti_sysbios_family_c64p_Hwi_LD_end__C
0083652c   ti_sysbios_family_c64p_Hwi_LM_begin__C
00836530   ti_sysbios_family_c64p_Hwi_Module__diagsEnabled__C
00836534   ti_sysbios_family_c64p_Hwi_Module__diagsIncluded__C
00836538   ti_sysbios_family_c64p_Hwi_Module__diagsMask__C
008367cc   ti_sysbios_family_c64p_Hwi_Module__id__C
008367d0   ti_sysbios_family_c64p_Hwi_Module__loggerDefined__C
0083653c   ti_sysbios_family_c64p_Hwi_Module__loggerFxn1__C
00836540   ti_sysbios_family_c64p_Hwi_Module__loggerFxn8__C
00836544   ti_sysbios_family_c64p_Hwi_Module__loggerObj__C
008371a0   ti_sysbios_family_c64p_Hwi_Module__root__V
008273c0   ti_sysbios_family_c64p_Hwi_Module__startupDone__F
008273c0   ti_sysbios_family_c64p_Hwi_Module__startupDone__S
008371a8   ti_sysbios_family_c64p_Hwi_Module__state__V
0081e660   ti_sysbios_family_c64p_Hwi_Module_startup__E
0081e660   ti_sysbios_family_c64p_Hwi_Module_startup__F
00835f1c   ti_sysbios_family_c64p_Hwi_Object__DESC__C
00835984   ti_sysbios_family_c64p_Hwi_Object__PARAMS__C
00820960   ti_sysbios_family_c64p_Hwi_Object__create__S
00826500   ti_sysbios_family_c64p_Hwi_Object__delete__S
00837f80   ti_sysbios_family_c64p_Hwi_Object__table__V
00828840   ti_sysbios_family_c64p_Hwi_Params__init__S
00828860   ti_sysbios_family_c64p_Hwi_clearInterrupt__E
00827400   ti_sysbios_family_c64p_Hwi_disableInterrupt__E
00818d60   ti_sysbios_family_c64p_Hwi_dispatchAlways
008126e0   ti_sysbios_family_c64p_Hwi_dispatchC__I
00827440   ti_sysbios_family_c64p_Hwi_enableInterrupt__E
00824e40   ti_sysbios_family_c64p_Hwi_eventMap__E
00828880   ti_sysbios_family_c64p_Hwi_getHandle__E
00823f00   ti_sysbios_family_c64p_Hwi_plug__E
00817ce0   ti_sysbios_family_c64p_Hwi_reconfig__E
008288a0   ti_sysbios_family_c64p_Hwi_startup__E
008288c0   ti_sysbios_family_c64p_Hwi_switchFromBootStack__E
008288e0   ti_sysbios_family_c64p_Hwi_unPluggedInterrupt__I
00828900   ti_sysbios_family_c64p_TimestampProvider_Module_startup__E
00828900   ti_sysbios_family_c64p_TimestampProvider_Module_startup__F
00828920   ti_sysbios_family_c64p_TimestampProvider_get64__E
008287a0   ti_sysbios_family_c64p_TimestampProvider_getFreq__E
00828940   ti_sysbios_family_c64p_tci6488_TimerSupport_enable__E
0081e7a0   ti_sysbios_family_c66_Cache_Module_startup__E
0081e7a0   ti_sysbios_family_c66_Cache_Module_startup__F
00836548   ti_sysbios_family_c66_Cache_atomicBlockSize__C
00834fb4   ti_sysbios_family_c66_Cache_initSize__C
00824ec0   ti_sysbios_family_c66_Cache_invL1pAll__E
00828960   ti_sysbios_family_c66_Cache_inv__E
00834fc0   ti_sysbios_family_c66_Cache_marvalues__C
00828980   ti_sysbios_family_c66_Cache_wbInv__E
00826f00   ti_sysbios_family_xxx_Hwi_switchToIsrStack
00827f80   ti_sysbios_family_xxx_Hwi_switchToTaskStack
00827480   ti_sysbios_gates_GateAll_Handle__label__S
008289a0   ti_sysbios_gates_GateAll_Instance_init__F
00835c14   ti_sysbios_gates_GateAll_Module__FXNS__C
00837210   ti_sysbios_gates_GateAll_Module__root__V
00835f3c   ti_sysbios_gates_GateAll_Object__DESC__C
00836150   ti_sysbios_gates_GateAll_Object__PARAMS__C
00824f40   ti_sysbios_gates_GateAll_Object__create__S
00826560   ti_sysbios_gates_GateAll_Object__delete__S
00837fe0   ti_sysbios_gates_GateAll_Object__table__V
008265c0   ti_sysbios_gates_GateAll_enter__E
00823560   ti_sysbios_gates_GateAll_leave__E
008289c0   ti_sysbios_gates_GateAll_query__E
008289c0   ti_sysbios_gates_GateAll_query__F
008274c0   ti_sysbios_gates_GateHwi_Handle__label__S
008289e0   ti_sysbios_gates_GateHwi_Instance_init__F
00835c38   ti_sysbios_gates_GateHwi_Module__FXNS__C
00837218   ti_sysbios_gates_GateHwi_Module__root__V
00835f5c   ti_sysbios_gates_GateHwi_Object__DESC__C
00836168   ti_sysbios_gates_GateHwi_Object__PARAMS__C
00824fc0   ti_sysbios_gates_GateHwi_Object__create__S
00826620   ti_sysbios_gates_GateHwi_Object__delete__S
008380b0   ti_sysbios_gates_GateHwi_Object__table__V
00828a00   ti_sysbios_gates_GateHwi_enter__E
00828a20   ti_sysbios_gates_GateHwi_leave__E
00828a40   ti_sysbios_gates_GateHwi_query__E
00828a40   ti_sysbios_gates_GateHwi_query__F
0083654c   ti_sysbios_gates_GateMutexPri_A_badContext__C
00827500   ti_sysbios_gates_GateMutexPri_Handle__label__S
00836550   ti_sysbios_gates_GateMutexPri_Instance_State_pendQ__O
00827540   ti_sysbios_gates_GateMutexPri_Instance_finalize__F
00827580   ti_sysbios_gates_GateMutexPri_Instance_init__F
00835c5c   ti_sysbios_gates_GateMutexPri_Module__FXNS__C
00836554   ti_sysbios_gates_GateMutexPri_Module__diagsEnabled__C
00836558   ti_sysbios_gates_GateMutexPri_Module__diagsIncluded__C
0083655c   ti_sysbios_gates_GateMutexPri_Module__diagsMask__C
008367d4   ti_sysbios_gates_GateMutexPri_Module__id__C
00837228   ti_sysbios_gates_GateMutexPri_Module__root__V
00835f7c   ti_sysbios_gates_GateMutexPri_Object__DESC__C
00836180   ti_sysbios_gates_GateMutexPri_Object__PARAMS__C
00825040   ti_sysbios_gates_GateMutexPri_Object__create__S
00826680   ti_sysbios_gates_GateMutexPri_Object__delete__S
008275c0   ti_sysbios_gates_GateMutexPri_Object__destruct__S
00837fa0   ti_sysbios_gates_GateMutexPri_Object__table__V
00813280   ti_sysbios_gates_GateMutexPri_enter__E
00820a60   ti_sysbios_gates_GateMutexPri_leave__E
00828a60   ti_sysbios_gates_GateMutexPri_query__E
00828a60   ti_sysbios_gates_GateMutexPri_query__F
00836560   ti_sysbios_gates_GateMutex_A_badContext__C
00827600   ti_sysbios_gates_GateMutex_Handle__label__S
00836564   ti_sysbios_gates_GateMutex_Instance_State_sem__O
00827640   ti_sysbios_gates_GateMutex_Instance_finalize__F
008266e0   ti_sysbios_gates_GateMutex_Instance_init__F
00835c80   ti_sysbios_gates_GateMutex_Module__FXNS__C
00836568   ti_sysbios_gates_GateMutex_Module__diagsEnabled__C
0083656c   ti_sysbios_gates_GateMutex_Module__diagsIncluded__C
00836570   ti_sysbios_gates_GateMutex_Module__diagsMask__C
008367d8   ti_sysbios_gates_GateMutex_Module__id__C
00837220   ti_sysbios_gates_GateMutex_Module__root__V
00835f9c   ti_sysbios_gates_GateMutex_Object__DESC__C
00836198   ti_sysbios_gates_GateMutex_Object__PARAMS__C
008250c0   ti_sysbios_gates_GateMutex_Object__create__S
00826740   ti_sysbios_gates_GateMutex_Object__delete__S
00837e90   ti_sysbios_gates_GateMutex_Object__table__V
0081bbc0   ti_sysbios_gates_GateMutex_enter__E
00827680   ti_sysbios_gates_GateMutex_leave__E
00828a80   ti_sysbios_gates_GateMutex_query__E
00828a80   ti_sysbios_gates_GateMutex_query__F
00836574   ti_sysbios_gates_GateSwi_A_badContext__C
008276c0   ti_sysbios_gates_GateSwi_Handle__label__S
00828aa0   ti_sysbios_gates_GateSwi_Instance_init__F
00835ca4   ti_sysbios_gates_GateSwi_Module__FXNS__C
00836578   ti_sysbios_gates_GateSwi_Module__diagsEnabled__C
0083657c   ti_sysbios_gates_GateSwi_Module__diagsIncluded__C
00836580   ti_sysbios_gates_GateSwi_Module__diagsMask__C
008367dc   ti_sysbios_gates_GateSwi_Module__id__C
00837230   ti_sysbios_gates_GateSwi_Module__root__V
00835fbc   ti_sysbios_gates_GateSwi_Object__DESC__C
008361b0   ti_sysbios_gates_GateSwi_Object__PARAMS__C
00825140   ti_sysbios_gates_GateSwi_Object__create__S
008267a0   ti_sysbios_gates_GateSwi_Object__delete__S
00837ff0   ti_sysbios_gates_GateSwi_Object__table__V
0081e8e0   ti_sysbios_gates_GateSwi_enter__E
008251c0   ti_sysbios_gates_GateSwi_leave__E
00828ac0   ti_sysbios_gates_GateSwi_query__E
00828ac0   ti_sysbios_gates_GateSwi_query__F
00828960   ti_sysbios_hal_Cache_CacheProxy_inv__E
00828980   ti_sysbios_hal_Cache_CacheProxy_wbInv__E
00828960   ti_sysbios_hal_Cache_inv__E
00828980   ti_sysbios_hal_Cache_wbInv__E
00836584   ti_sysbios_hal_Hwi_E_stackOverflow__C
00828ae0   ti_sysbios_hal_Hwi_HwiProxy_Module__startupDone__S
00828860   ti_sysbios_hal_Hwi_HwiProxy_clearInterrupt__E
00827400   ti_sysbios_hal_Hwi_HwiProxy_disableInterrupt__E
00827440   ti_sysbios_hal_Hwi_HwiProxy_enableInterrupt__E
008288a0   ti_sysbios_hal_Hwi_HwiProxy_startup__E
008288c0   ti_sysbios_hal_Hwi_HwiProxy_switchFromBootStack__E
008367e0   ti_sysbios_hal_Hwi_Module__id__C
00837238   ti_sysbios_hal_Hwi_Module__root__V
00828b00   ti_sysbios_hal_Hwi_Module_startup__E
00828b00   ti_sysbios_hal_Hwi_Module_startup__F
00838000   ti_sysbios_hal_Hwi_Object__table__V
00825240   ti_sysbios_hal_Hwi_checkStack
00828860   ti_sysbios_hal_Hwi_clearInterrupt__E
00827400   ti_sysbios_hal_Hwi_disableInterrupt__E
00827440   ti_sysbios_hal_Hwi_enableInterrupt__E
00826800   ti_sysbios_hal_Hwi_initStack
008288a0   ti_sysbios_hal_Hwi_startup__E
008288c0   ti_sysbios_hal_Hwi_switchFromBootStack__E
00837240   ti_sysbios_hal_Timer_Module__root__V
00827700   ti_sysbios_hal_Timer_Module__startupDone__F
00827700   ti_sysbios_hal_Timer_Module__startupDone__S
00828b20   ti_sysbios_hal_Timer_Module_startup__E
00828b20   ti_sysbios_hal_Timer_Module_startup__F
00838010   ti_sysbios_hal_Timer_Object__table__V
00828b40   ti_sysbios_hal_Timer_TimerProxy_Module__startupDone__S
00828b60   ti_sysbios_hal_Timer_TimerProxy_getExpiredCounts__E
00828b80   ti_sysbios_hal_Timer_TimerProxy_getPeriod__E
00828ba0   ti_sysbios_hal_Timer_TimerProxy_setNextTick__E
00822220   ti_sysbios_hal_Timer_TimerProxy_startup__E
00822220   ti_sysbios_hal_Timer_startup__E
00836588   ti_sysbios_heaps_HeapMem_A_align__C
0083658c   ti_sysbios_heaps_HeapMem_A_heapSize__C
00836590   ti_sysbios_heaps_HeapMem_A_invalidFree__C
00836594   ti_sysbios_heaps_HeapMem_A_zeroBlock__C
00836598   ti_sysbios_heaps_HeapMem_E_memory__C
00827740   ti_sysbios_heaps_HeapMem_Handle__label__S
008291e0   ti_sysbios_heaps_HeapMem_Instance_State_0_buf__A
0081ce00   ti_sysbios_heaps_HeapMem_Instance_init__F
00828bc0   ti_sysbios_heaps_HeapMem_Module_GateProxy_enter__E
00828be0   ti_sysbios_heaps_HeapMem_Module_GateProxy_leave__E
00828a80   ti_sysbios_heaps_HeapMem_Module_GateProxy_query__E
00835b30   ti_sysbios_heaps_HeapMem_Module__FXNS__C
0083659c   ti_sysbios_heaps_HeapMem_Module__diagsEnabled__C
008365a0   ti_sysbios_heaps_HeapMem_Module__diagsIncluded__C
008365a4   ti_sysbios_heaps_HeapMem_Module__diagsMask__C
008365a8   ti_sysbios_heaps_HeapMem_Module__gateObj__C
008367e4   ti_sysbios_heaps_HeapMem_Module__id__C
00837248   ti_sysbios_heaps_HeapMem_Module__root__V
00835fdc   ti_sysbios_heaps_HeapMem_Object__DESC__C
00835ffc   ti_sysbios_heaps_HeapMem_Object__PARAMS__C
008365ac   ti_sysbios_heaps_HeapMem_Object__count__C
008252c0   ti_sysbios_heaps_HeapMem_Object__create__S
00826860   ti_sysbios_heaps_HeapMem_Object__delete__S
00827780   ti_sysbios_heaps_HeapMem_Object__get__S
00837fc0   ti_sysbios_heaps_HeapMem_Object__table__V
00808b80   ti_sysbios_heaps_HeapMem_alloc__E
00807f00   ti_sysbios_heaps_HeapMem_free__E
00823620   ti_sysbios_heaps_HeapMem_getStats__E
00824360   ti_sysbios_heaps_HeapMem_init__I
00828c00   ti_sysbios_heaps_HeapMem_isBlocking__E
008365b0   ti_sysbios_heaps_HeapMem_reqAlignMask__C
008365b4   ti_sysbios_heaps_HeapMem_reqAlign__C
008365b8   ti_sysbios_knl_Clock_A_badThreadType__C
0081ea20   ti_sysbios_knl_Clock_Instance_finalize__F
008154e0   ti_sysbios_knl_Clock_Instance_init__F
008365bc   ti_sysbios_knl_Clock_LM_begin__C
008365c0   ti_sysbios_knl_Clock_LM_tick__C
008365c4   ti_sysbios_knl_Clock_LW_delayed__C
008365c8   ti_sysbios_knl_Clock_Module_State_clockQ__O
008365cc   ti_sysbios_knl_Clock_Module__diagsEnabled__C
008365d0   ti_sysbios_knl_Clock_Module__diagsIncluded__C
008365d4   ti_sysbios_knl_Clock_Module__diagsMask__C
008367e8   ti_sysbios_knl_Clock_Module__id__C
008367ec   ti_sysbios_knl_Clock_Module__loggerDefined__C
008365d8   ti_sysbios_knl_Clock_Module__loggerFxn1__C
008365dc   ti_sysbios_knl_Clock_Module__loggerFxn2__C
008365e0   ti_sysbios_knl_Clock_Module__loggerObj__C
00837250   ti_sysbios_knl_Clock_Module__root__V
00837258   ti_sysbios_knl_Clock_Module__state__V
00825340   ti_sysbios_knl_Clock_Module_startup__E
00825340   ti_sysbios_knl_Clock_Module_startup__F
0083601c   ti_sysbios_knl_Clock_Object__DESC__C
00835cc8   ti_sysbios_knl_Clock_Object__PARAMS__C
00824400   ti_sysbios_knl_Clock_Object__create__S
008277c0   ti_sysbios_knl_Clock_Object__destruct__S
00828c20   ti_sysbios_knl_Clock_Params__init__S
008253c0   ti_sysbios_knl_Clock_doTick__I
00825440   ti_sysbios_knl_Clock_getTicks__E
008236e0   ti_sysbios_knl_Clock_logTick__E
00820b60   ti_sysbios_knl_Clock_startI__E
00822140   ti_sysbios_knl_Clock_start__E
008365e4   ti_sysbios_knl_Clock_tickMode__C
008365e8   ti_sysbios_knl_Clock_tickSource__C
008145a0   ti_sysbios_knl_Clock_workFunc__E
008365f0   ti_sysbios_knl_Idle_funcList__A
00836258   ti_sysbios_knl_Idle_funcList__C
008254c0   ti_sysbios_knl_Idle_loop__E
00828c40   ti_sysbios_knl_Queue_Instance_init__F
00837284   ti_sysbios_knl_Queue_Module__root__V
0083603c   ti_sysbios_knl_Queue_Object__DESC__C
008361c8   ti_sysbios_knl_Queue_Object__PARAMS__C
00825540   ti_sysbios_knl_Queue_Object__create__S
00828c60   ti_sysbios_knl_Queue_Object__destruct__S
00828c80   ti_sysbios_knl_Queue_Object__get__S
00828ca0   ti_sysbios_knl_Queue_empty__E
008365ec   ti_sysbios_knl_Semaphore_A_badContext__C
008365f4   ti_sysbios_knl_Semaphore_A_noEvents__C
008365f8   ti_sysbios_knl_Semaphore_A_overflow__C
008365fc   ti_sysbios_knl_Semaphore_Instance_State_pendQ__O
00827800   ti_sysbios_knl_Semaphore_Instance_finalize__F
0081eb60   ti_sysbios_knl_Semaphore_Instance_init__F
00836600   ti_sysbios_knl_Semaphore_LM_pend__C
00836604   ti_sysbios_knl_Semaphore_LM_post__C
00836608   ti_sysbios_knl_Semaphore_Module__diagsEnabled__C
0083660c   ti_sysbios_knl_Semaphore_Module__diagsIncluded__C
00836610   ti_sysbios_knl_Semaphore_Module__diagsMask__C
008367f0   ti_sysbios_knl_Semaphore_Module__id__C
008367f4   ti_sysbios_knl_Semaphore_Module__loggerDefined__C
00836614   ti_sysbios_knl_Semaphore_Module__loggerFxn2__C
00836618   ti_sysbios_knl_Semaphore_Module__loggerFxn4__C
0083661c   ti_sysbios_knl_Semaphore_Module__loggerObj__C
0083728c   ti_sysbios_knl_Semaphore_Module__root__V
0083605c   ti_sysbios_knl_Semaphore_Object__DESC__C
00835cec   ti_sysbios_knl_Semaphore_Object__PARAMS__C
008255c0   ti_sysbios_knl_Semaphore_Object__create__S
00827840   ti_sysbios_knl_Semaphore_Object__destruct__S
00828cc0   ti_sysbios_knl_Semaphore_Params__init__S
00825640   ti_sysbios_knl_Semaphore_pendTimeout__I
00810500   ti_sysbios_knl_Semaphore_pend__E
00817880   ti_sysbios_knl_Semaphore_post__E
00836620   ti_sysbios_knl_Swi_A_badPriority__C
008237a0   ti_sysbios_knl_Swi_Instance_finalize__F
0081a7e0   ti_sysbios_knl_Swi_Instance_init__F
00836624   ti_sysbios_knl_Swi_LD_end__C
00836628   ti_sysbios_knl_Swi_LM_begin__C
0083662c   ti_sysbios_knl_Swi_LM_post__C
00837ac0   ti_sysbios_knl_Swi_Module_State_0_readyQ__A
00836630   ti_sysbios_knl_Swi_Module__diagsEnabled__C
00836634   ti_sysbios_knl_Swi_Module__diagsIncluded__C
00836638   ti_sysbios_knl_Swi_Module__diagsMask__C
008367f8   ti_sysbios_knl_Swi_Module__id__C
008367fc   ti_sysbios_knl_Swi_Module__loggerDefined__C
0083663c   ti_sysbios_knl_Swi_Module__loggerFxn1__C
00836640   ti_sysbios_knl_Swi_Module__loggerFxn4__C
00836644   ti_sysbios_knl_Swi_Module__loggerObj__C
00837294   ti_sysbios_knl_Swi_Module__root__V
0083729c   ti_sysbios_knl_Swi_Module__state__V
008268c0   ti_sysbios_knl_Swi_Module_startup__E
008268c0   ti_sysbios_knl_Swi_Module_startup__F
0083607c   ti_sysbios_knl_Swi_Object__DESC__C
00835b58   ti_sysbios_knl_Swi_Object__PARAMS__C
00836648   ti_sysbios_knl_Swi_Object__count__C
00820c60   ti_sysbios_knl_Swi_Object__create__S
00827880   ti_sysbios_knl_Swi_Object__destruct__S
008278c0   ti_sysbios_knl_Swi_Object__get__S
00837ed0   ti_sysbios_knl_Swi_Object__table__V
00828ce0   ti_sysbios_knl_Swi_Params__init__S
00828d00   ti_sysbios_knl_Swi_disable__E
0081eca0   ti_sysbios_knl_Swi_post__E
00820d60   ti_sysbios_knl_Swi_restoreHwi__E
00817f00   ti_sysbios_knl_Swi_run__I
0081cf80   ti_sysbios_knl_Swi_schedule__I
008256c0   ti_sysbios_knl_Swi_startup__E
0083664c   ti_sysbios_knl_Task_A_badPriority__C
00836650   ti_sysbios_knl_Task_A_badTimeout__C
00836654   ti_sysbios_knl_Task_E_spOutOfBounds__C
00836658   ti_sysbios_knl_Task_E_stackOverflow__C
008311e0   ti_sysbios_knl_Task_Instance_State_0_hookEnv__A
008311f8   ti_sysbios_knl_Task_Instance_State_0_stack__A
008311f0   ti_sysbios_knl_Task_Instance_State_1_hookEnv__A
008319f8   ti_sysbios_knl_Task_Instance_State_1_stack__A
0083665c   ti_sysbios_knl_Task_LD_block__C
00836660   ti_sysbios_knl_Task_LD_exit__C
00836664   ti_sysbios_knl_Task_LD_ready__C
00836668   ti_sysbios_knl_Task_LM_setPri__C
0083666c   ti_sysbios_knl_Task_LM_sleep__C
00836670   ti_sysbios_knl_Task_LM_switch__C
00836674   ti_sysbios_knl_Task_LM_yield__C
00837b40   ti_sysbios_knl_Task_Module_State_0_readyQ__A
00836678   ti_sysbios_knl_Task_Module_State_inactiveQ__O
0083667c   ti_sysbios_knl_Task_Module_State_terminatedQ__O
00836680   ti_sysbios_knl_Task_Module__diagsEnabled__C
00836684   ti_sysbios_knl_Task_Module__diagsIncluded__C
00836688   ti_sysbios_knl_Task_Module__diagsMask__C
00836800   ti_sysbios_knl_Task_Module__id__C
00836804   ti_sysbios_knl_Task_Module__loggerDefined__C
0083668c   ti_sysbios_knl_Task_Module__loggerFxn2__C
00836690   ti_sysbios_knl_Task_Module__loggerFxn4__C
00836694   ti_sysbios_knl_Task_Module__loggerObj__C
008372b8   ti_sysbios_knl_Task_Module__root__V
008372c0   ti_sysbios_knl_Task_Module__state__V
00813560   ti_sysbios_knl_Task_Module_startup__E
00813560   ti_sysbios_knl_Task_Module_startup__F
00836698   ti_sysbios_knl_Task_Object__count__C
00828d20   ti_sysbios_knl_Task_Object__first__S
00827900   ti_sysbios_knl_Task_Object__get__S
00828d40   ti_sysbios_knl_Task_Object__next__S
008379b0   ti_sysbios_knl_Task_Object__table__V
00828d60   ti_sysbios_knl_Task_SupportProxy_Module__startupDone__S
00828820   ti_sysbios_knl_Task_SupportProxy_checkStack__E
00824d40   ti_sysbios_knl_Task_SupportProxy_start__E
00824740   ti_sysbios_knl_Task_SupportProxy_swap__E
0083669c   ti_sysbios_knl_Task_allBlockedFunc__C
00826920   ti_sysbios_knl_Task_allBlockedFunction__I
0081ede0   ti_sysbios_knl_Task_blockI__E
0081a9a0   ti_sysbios_knl_Task_checkStacks__E
00836808   ti_sysbios_knl_Task_deleteTerminatedTasks__C
00828d80   ti_sysbios_knl_Task_disable__E
00826980   ti_sysbios_knl_Task_enter__I
00815760   ti_sysbios_knl_Task_exit__E
00828da0   ti_sysbios_knl_Task_getPri__E
008361e0   ti_sysbios_knl_Task_hooks__A
00836274   ti_sysbios_knl_Task_hooks__C
0083680c   ti_sysbios_knl_Task_initStackFlag__C
008366a0   ti_sysbios_knl_Task_numConstructedTasks__C
008366a4   ti_sysbios_knl_Task_numPriorities__C
00819ee0   ti_sysbios_knl_Task_postInit__I
00825740   ti_sysbios_knl_Task_restore__E
00818120   ti_sysbios_knl_Task_schedule__I
00828dc0   ti_sysbios_knl_Task_self__E
00810cc0   ti_sysbios_knl_Task_setPri__E
00827940   ti_sysbios_knl_Task_sleepTimeout__I
00814840   ti_sysbios_knl_Task_sleep__E
00818340   ti_sysbios_knl_Task_startup__E
0081d100   ti_sysbios_knl_Task_unblockI__E
0081ef20   ti_sysbios_knl_Task_yield__E
008372f4   ti_sysbios_syncs_SyncSem_Module__root__V
008366a8   ti_sysbios_timers_timer64_Timer_A_notAvailable__C
008366ac   ti_sysbios_timers_timer64_Timer_E_cannotSupport__C
00837540   ti_sysbios_timers_timer64_Timer_Module_State_0_device__A
00837bc0   ti_sysbios_timers_timer64_Timer_Module_State_0_gctrl__A
00837c40   ti_sysbios_timers_timer64_Timer_Module_State_0_handles__A
00837cc0   ti_sysbios_timers_timer64_Timer_Module_State_0_intFreqs__A
008366b0   ti_sysbios_timers_timer64_Timer_Module__diagsEnabled__C
008366b4   ti_sysbios_timers_timer64_Timer_Module__diagsIncluded__C
008366b8   ti_sysbios_timers_timer64_Timer_Module__diagsMask__C
00836810   ti_sysbios_timers_timer64_Timer_Module__id__C
008372fc   ti_sysbios_timers_timer64_Timer_Module__root__V
00827980   ti_sysbios_timers_timer64_Timer_Module__startupDone__F
00827980   ti_sysbios_timers_timer64_Timer_Module__startupDone__S
00837304   ti_sysbios_timers_timer64_Timer_Module__state__V
0080b440   ti_sysbios_timers_timer64_Timer_Module_startup__E
0080b440   ti_sysbios_timers_timer64_Timer_Module_startup__F
00837dc0   ti_sysbios_timers_timer64_Timer_Object__table__V
00828940   ti_sysbios_timers_timer64_Timer_TimerSupportProxy_enable__E
008366bc   ti_sysbios_timers_timer64_Timer_anyMask__C
008366c0   ti_sysbios_timers_timer64_Timer_freqDivisor__C
008257c0   ti_sysbios_timers_timer64_Timer_getCount__E
008257c0   ti_sysbios_timers_timer64_Timer_getExpiredCounts__E
0081a0c0   ti_sysbios_timers_timer64_Timer_getFreq__E
00825840   ti_sysbios_timers_timer64_Timer_getPeriod__E
008366c4   ti_sysbios_timers_timer64_Timer_numLocalTimers__C
008366c8   ti_sysbios_timers_timer64_Timer_numTimerDevices__C
00828de0   ti_sysbios_timers_timer64_Timer_setNextTick__E
0081ab60   ti_sysbios_timers_timer64_Timer_setPeriodMicroSecs__E
0081bd60   ti_sysbios_timers_timer64_Timer_start__E
00836814   ti_sysbios_timers_timer64_Timer_startupNeeded__C
00822220   ti_sysbios_timers_timer64_Timer_startup__E
00823860   ti_sysbios_timers_timer64_Timer_stop__E
00828a60   ti_sysbios_xdcruntime_GateProcessSupport_query__F
008366cc   ti_sysbios_xdcruntime_GateThreadSupport_Instance_State_gate__O
008279c0   ti_sysbios_xdcruntime_GateThreadSupport_Instance_finalize__F
00827a00   ti_sysbios_xdcruntime_GateThreadSupport_Instance_init__F
00837318   ti_sysbios_xdcruntime_GateThreadSupport_Module__root__V
0083609c   ti_sysbios_xdcruntime_GateThreadSupport_Object__DESC__C
008361f8   ti_sysbios_xdcruntime_GateThreadSupport_Object__PARAMS__C
008258c0   ti_sysbios_xdcruntime_GateThreadSupport_Object__create__S
008269e0   ti_sysbios_xdcruntime_GateThreadSupport_Object__delete__S
00827a40   ti_sysbios_xdcruntime_GateThreadSupport_enter__E
00827a40   ti_sysbios_xdcruntime_GateThreadSupport_enter__F
00827a80   ti_sysbios_xdcruntime_GateThreadSupport_leave__E
00827a80   ti_sysbios_xdcruntime_GateThreadSupport_leave__F
00828a60   ti_sysbios_xdcruntime_GateThreadSupport_query__E
00828a60   ti_sysbios_xdcruntime_GateThreadSupport_query__F
00821880   tsk0_func
00825940   unlink
00823920   write
00826a40   writemsg
008366d0   xdc_runtime_Assert_E_assertFailed__C
008244a0   xdc_runtime_Assert_raise__I
008366d4   xdc_runtime_Core_A_initializedParams__C
008366d8   xdc_runtime_Core_Module__diagsEnabled__C
008366dc   xdc_runtime_Core_Module__diagsIncluded__C
008366e0   xdc_runtime_Core_Module__diagsMask__C
00836818   xdc_runtime_Core_Module__id__C
008259c0   xdc_runtime_Core_assignLabel__I
00825a40   xdc_runtime_Core_assignParams__I
008159e0   xdc_runtime_Core_createObject__I
00820e60   xdc_runtime_Core_deleteObject__I
008366e4   xdc_runtime_Error_E_generic__C
008366e8   xdc_runtime_Error_E_memory__C
008366ec   xdc_runtime_Error_Module__diagsEnabled__C
008366f0   xdc_runtime_Error_Module__diagsIncluded__C
008366f4   xdc_runtime_Error_Module__diagsMask__C
0083681c   xdc_runtime_Error_Module__loggerDefined__C
008366f8   xdc_runtime_Error_Module__loggerFxn8__C
008366fc   xdc_runtime_Error_Module__loggerObj__C
00837320   xdc_runtime_Error_Module__state__V
00827ac0   xdc_runtime_Error_check__E
00827ac0   xdc_runtime_Error_check__F
00827b00   xdc_runtime_Error_init__E
00827b00   xdc_runtime_Error_init__F
00836820   xdc_runtime_Error_maxDepth__C
00836700   xdc_runtime_Error_policy__C
00822300   xdc_runtime_Error_print__E
00822300   xdc_runtime_Error_print__F
00836704   xdc_runtime_Error_raiseHook__C
00815c60   xdc_runtime_Error_raiseX__E
00815c60   xdc_runtime_Error_raiseX__F
00827b40   xdc_runtime_GateNull_Handle__label__S
00835d10   xdc_runtime_GateNull_Module__FXNS__C
00837324   xdc_runtime_GateNull_Module__root__V
008360bc   xdc_runtime_GateNull_Object__DESC__C
00836210   xdc_runtime_GateNull_Object__PARAMS__C
00826aa0   xdc_runtime_GateNull_Object__create__S
00826b00   xdc_runtime_GateNull_Object__delete__S
008380c0   xdc_runtime_GateNull_Object__table__V
00828e00   xdc_runtime_GateNull_enter__E
00828e00   xdc_runtime_GateNull_enter__F
00828e20   xdc_runtime_GateNull_leave__E
00828e20   xdc_runtime_GateNull_leave__F
00828e40   xdc_runtime_GateNull_query__E
00828e40   xdc_runtime_GateNull_query__F
00828e60   xdc_runtime_Gate_enterSystem__E
00828e60   xdc_runtime_Gate_enterSystem__F
00827b80   xdc_runtime_Gate_leaveSystem__E
00827b80   xdc_runtime_Gate_leaveSystem__F
00836708   xdc_runtime_IGateProvider_Interface__BASE__C
0083670c   xdc_runtime_IHeap_Interface__BASE__C
00836710   xdc_runtime_IModule_Interface__BASE__C
00836714   xdc_runtime_Log_L_error__C
00828a40   xdc_runtime_Main_Module_GateProxy_query__E
00828ec0   xdc_runtime_Memory_HeapProxy_alloc__E
00828ee0   xdc_runtime_Memory_HeapProxy_free__E
00836824   xdc_runtime_Memory_Module__id__C
0083732c   xdc_runtime_Memory_Module__state__V
008223e0   xdc_runtime_Memory_alloc__E
008223e0   xdc_runtime_Memory_alloc__F
00826b60   xdc_runtime_Memory_calloc__E
00826b60   xdc_runtime_Memory_calloc__F
00836718   xdc_runtime_Memory_defaultHeapInstance__C
00827bc0   xdc_runtime_Memory_free__E
00827bc0   xdc_runtime_Memory_free__F
00828f00   xdc_runtime_Memory_getMaxDefaultTypeAlign__E
00828f00   xdc_runtime_Memory_getMaxDefaultTypeAlign__F
00826bc0   xdc_runtime_Memory_valloc__E
00826bc0   xdc_runtime_Memory_valloc__F
00837330   xdc_runtime_Registry_Module__state__V
00827c00   xdc_runtime_Registry_findById__E
00827c00   xdc_runtime_Registry_findById__F
00828f20   xdc_runtime_Startup_Module__startupDone__S
00837338   xdc_runtime_Startup_Module__state__V
00000001   xdc_runtime_Startup__EXECFXN__C
00000001   xdc_runtime_Startup__RESETFXN__C
0083671c   xdc_runtime_Startup_execImpl__C
00820f60   xdc_runtime_Startup_exec__E
00820f60   xdc_runtime_Startup_exec__F
00828f40   xdc_runtime_Startup_exec__I
008362a0   xdc_runtime_Startup_firstFxns__A
008362ac   xdc_runtime_Startup_firstFxns__C
00836720   xdc_runtime_Startup_lastFxns__A
008362b4   xdc_runtime_Startup_lastFxns__C
00836724   xdc_runtime_Startup_maxPasses__C
00828f60   xdc_runtime_Startup_reset__I
00828f80   xdc_runtime_Startup_rtsDone__E
00828f80   xdc_runtime_Startup_rtsDone__F
008360e0   xdc_runtime_Startup_sfxnRts__A
00836728   xdc_runtime_Startup_sfxnRts__C
00835840   xdc_runtime_Startup_sfxnTab__A
0083672c   xdc_runtime_Startup_sfxnTab__C
00816ac0   xdc_runtime_Startup_startMods__I
00826c20   xdc_runtime_SysStd_abort__E
00826c20   xdc_runtime_SysStd_abort__F
00828fa0   xdc_runtime_SysStd_exit__E
00828fa0   xdc_runtime_SysStd_exit__F
00828fc0   xdc_runtime_SysStd_putch__E
00828fc0   xdc_runtime_SysStd_putch__F
00828fe0   xdc_runtime_SysStd_ready__E
00828fe0   xdc_runtime_SysStd_ready__F
00829000   xdc_runtime_System_Module_GateProxy_enter__E
00829020   xdc_runtime_System_Module_GateProxy_leave__E
00828a40   xdc_runtime_System_Module_GateProxy_query__E
00837f60   xdc_runtime_System_Module_State_0_atexitHandlers__A
00836730   xdc_runtime_System_Module__gateObj__C
00837340   xdc_runtime_System_Module__state__V
00829040   xdc_runtime_System_Module_startup__E
00829040   xdc_runtime_System_Module_startup__F
00826c20   xdc_runtime_System_SupportProxy_abort__E
00828fa0   xdc_runtime_System_SupportProxy_exit__E
00828fc0   xdc_runtime_System_SupportProxy_putch__E
00828fe0   xdc_runtime_System_SupportProxy_ready__E
00827c40   xdc_runtime_System_abort__E
00827c40   xdc_runtime_System_abort__F
00827c80   xdc_runtime_System_aprintf__E
00826c80   xdc_runtime_System_aprintf_va__E
00826c80   xdc_runtime_System_aprintf_va__F
00825ac0   xdc_runtime_System_atexit__E
00825ac0   xdc_runtime_System_atexit__F
00826c80   xdc_runtime_System_avprintf__E
00826c80   xdc_runtime_System_avprintf__F
00802fa0   xdc_runtime_System_doPrint__I
00829060   xdc_runtime_System_exit__E
00829060   xdc_runtime_System_exit__F
00836734   xdc_runtime_System_extendFxn__C
008239e0   xdc_runtime_System_formatNum__I
00829080   xdc_runtime_System_lastFxn__I
00836738   xdc_runtime_System_maxAtexitHandlers__C
00816d20   xdc_runtime_System_printfExtend__I
00827cc0   xdc_runtime_System_printf__E
00826ce0   xdc_runtime_System_printf_va__E
00826ce0   xdc_runtime_System_printf_va__F
00825b40   xdc_runtime_System_rtsExit__I
008290a0   xdc_runtime_System_sprintf_va__E
008290a0   xdc_runtime_System_sprintf_va__F
00826ce0   xdc_runtime_System_vprintf__E
00826ce0   xdc_runtime_System_vprintf__F
008290a0   xdc_runtime_System_vsprintf__E
008290a0   xdc_runtime_System_vsprintf__F
0083734c   xdc_runtime_Text_Module__state__V
00836828   xdc_runtime_Text_charCnt__C
008325d0   xdc_runtime_Text_charTab__A
0083673c   xdc_runtime_Text_charTab__C
00826d40   xdc_runtime_Text_cordText__E
00826d40   xdc_runtime_Text_cordText__F
0083682c   xdc_runtime_Text_isLoaded__C
00836740   xdc_runtime_Text_nameEmpty__C
00836744   xdc_runtime_Text_nameStatic__C
00836748   xdc_runtime_Text_nameUnknown__C
008353c0   xdc_runtime_Text_nodeTab__A
0083674c   xdc_runtime_Text_nodeTab__C
00825bc0   xdc_runtime_Text_printVisFxn__I
00821060   xdc_runtime_Text_putMod__E
00821060   xdc_runtime_Text_putMod__F
0081d280   xdc_runtime_Text_putSite__E
0081d280   xdc_runtime_Text_putSite__F
00836830   xdc_runtime_Text_registryModsLastId__C
00827d00   xdc_runtime_Text_ropeText__E
00827d00   xdc_runtime_Text_ropeText__F
00836834   xdc_runtime_Text_unnamedModsLastId__C
00821160   xdc_runtime_Text_visitRope2__I
00836750   xdc_runtime_Text_visitRopeFxn__C
008290c0   xdc_runtime_Text_visitRope__I
00825c40   xdc_runtime_Text_xprintf__I
00828920   xdc_runtime_Timestamp_SupportProxy_get64__E
008287a0   xdc_runtime_Timestamp_SupportProxy_getFreq__E
00828920   xdc_runtime_Timestamp_get64__E
00828920   xdc_runtime_Timestamp_get64__F
008287a0   xdc_runtime_Timestamp_getFreq__E
008287a0   xdc_runtime_Timestamp_getFreq__F
00827d40   xdc_runtime_knl_GateThread_Handle__label__S
00827d80   xdc_runtime_knl_GateThread_Instance_finalize__F
00827dc0   xdc_runtime_knl_GateThread_Instance_init__F
00835d34   xdc_runtime_knl_GateThread_Module__FXNS__C
00837354   xdc_runtime_knl_GateThread_Module__root__V
008290e0   xdc_runtime_knl_GateThread_Module__startupDone__S
00836100   xdc_runtime_knl_GateThread_Object__DESC__C
00836228   xdc_runtime_knl_GateThread_Object__PARAMS__C
008224c0   xdc_runtime_knl_GateThread_Object__create__S
00826da0   xdc_runtime_knl_GateThread_Object__delete__S
00829100   xdc_runtime_knl_GateThread_Proxy_Object__create__S
00829120   xdc_runtime_knl_GateThread_Proxy_Object__delete__S
00829140   xdc_runtime_knl_GateThread_Proxy_enter__E
00829160   xdc_runtime_knl_GateThread_Proxy_leave__E
00828a60   xdc_runtime_knl_GateThread_Proxy_query__E
00829180   xdc_runtime_knl_GateThread_enter__E
00829180   xdc_runtime_knl_GateThread_enter__F
008291a0   xdc_runtime_knl_GateThread_leave__E
008291a0   xdc_runtime_knl_GateThread_leave__F
00828a60   xdc_runtime_knl_GateThread_query__E
00828a60   xdc_runtime_knl_GateThread_query__F


GLOBAL SYMBOLS: SORTED BY Symbol Address 

address    name
--------   ----
00000000   _argsize
00000001   __TI_args_main
00000001   xdc_runtime_Startup__EXECFXN__C
00000001   xdc_runtime_Startup__RESETFXN__C
00001000   __TI_STACK_SIZE
00800000   __ASM__
00800000   ti_sdo_ipc_GateMP_Instance_init__F
00800090   __ISA__
008000b0   __PLAT__
008000d0   __TARG__
00800100   __TRDR__
008011c0   ti_sdo_ipc_heaps_HeapMemMP_alloc__E
00801c20   ti_sdo_ipc_heaps_HeapMemMP_free__E
00802600   Ipc_attach
00802fa0   xdc_runtime_System_doPrint__I
00803940   ti_sdo_ipc_transports_TransportShm_Instance_init__F
00804260   ti_sdo_ipc_ListMP_Instance_init__F
00804b00   ti_sdo_ipc_GateMP_Instance_finalize__F
00805360   MessageQ_put
00805ba0   ti_sdo_ipc_heaps_HeapMemMP_Instance_init__F
00806320   ti_sysbios_family_c64p_Exception_handler__I
00806aa0   Notify_registerEvent
008071a0   ti_sdo_ipc_nsremote_NameServerRemoteNotify_Instance_init__F
00807860   NameServer_add
00807f00   ti_sysbios_heaps_HeapMem_free__E
00808560   Notify_sendEvent
00808b80   ti_sysbios_heaps_HeapMem_alloc__E
008091a0   Notify_registerEventSingle
00809780   ListMP_getHead
00809d40   Notify_unregisterEventSingle
0080a300   __c6xabi_divd
0080ae80   ti_sdo_ipc_SharedRegion_start__E
0080ae80   ti_sdo_ipc_SharedRegion_start__F
0080b440   ti_sysbios_timers_timer64_Timer_Module_startup__E
0080b440   ti_sysbios_timers_timer64_Timer_Module_startup__F
0080ba00   sem_clean
0080ba98   sem_wait
0080bbd8   sem_trywait
0080bcf4   sem_post
0080bdd4   sem_init
0080be6c   sem_destroyCallback
0080beb0   sem_destroy
0080bf80   ti_sdo_ipc_nsremote_NameServerRemoteNotify_get__E
0080bf80   ti_sdo_ipc_nsremote_NameServerRemoteNotify_get__F
0080c500   ti_sdo_ipc_transports_TransportShm_put__E
0080ca80   NameServer_get
0080cfe0   ti_sdo_ipc_Ipc_procSyncStart__I
0080d520   ti_sdo_ipc_notifyDrivers_NotifyDriverShm_Instance_init__F
0080da00   ti_sdo_ipc_gates_GatePeterson_Instance_init__F
0080e320   _printfi
0080e780   ti_sdo_ipc_GateMP_setRegion0Reserved__E
0080e780   ti_sdo_ipc_GateMP_setRegion0Reserved__F
0080ebe0   ti_sdo_ipc_Ipc_procSyncFinish__I
0080f040   ListMP_putTail
0080f480   ti_sdo_ipc_heaps_HeapMemMP_getStats__E
0080f8c0   ti_sdo_ipc_heaps_HeapMemMP_postInit__I
0080fd00   core7
00810100   ti_sdo_ipc_Notify_Instance_init__F
00810500   ti_sysbios_knl_Semaphore_pend__E
00810900   ti_sdo_ipc_SharedRegion_reserveMemory__E
00810900   ti_sdo_ipc_SharedRegion_reserveMemory__F
00810cc0   ti_sysbios_knl_Task_setPri__E
00811080   HeapMemMP_sharedMemReq
00811400   sendStart
00811438   sendEnd
00811440   receiveStart
00811444   receiveEnd
00811458   communicationInit
008115e4   callbackInterCoreCom
008115f4   busy_barrier
00811760   GateMP_sharedMemReq
00811aa0   ti_sdo_ipc_nsremote_NameServerRemoteNotify_swiFxn__I
00811de0   GateMP_openByAddr
008120e0   fputs
008123e0   ti_sdo_ipc_transports_TransportShm_openByAddr__E
008123e0   ti_sdo_ipc_transports_TransportShm_openByAddr__F
008126e0   ti_sysbios_family_c64p_Hwi_dispatchC__I
008129e0   SharedRegion_getEntry
00812cc0   SharedRegion_getPtr
00813280   ti_sysbios_gates_GateMutexPri_enter__E
00813560   ti_sysbios_knl_Task_Module_startup__E
00813560   ti_sysbios_knl_Task_Module_startup__F
00813b00   ti_sdo_ipc_notifyDrivers_NotifyDriverShm_isr__I
00813dc0   Ipc_start
00814060   NameServer_getLocal
008145a0   ti_sysbios_knl_Clock_workFunc__E
00814840   ti_sysbios_knl_Task_sleep__E
00814ae0   SharedRegion_getSRPtr
00815260   ti_sdo_ipc_notifyDrivers_NotifyDriverShm_sharedMemReq__E
00815260   ti_sdo_ipc_notifyDrivers_NotifyDriverShm_sharedMemReq__F
008154e0   ti_sysbios_knl_Clock_Instance_init__F
00815760   ti_sysbios_knl_Task_exit__E
008159e0   xdc_runtime_Core_createObject__I
00815c60   xdc_runtime_Error_raiseX__E
00815c60   xdc_runtime_Error_raiseX__F
00815ee0   core0
00816140   ListMP_sharedMemReq
008163a0   ti_sdo_ipc_ListMP_Instance_finalize__F
00816600   ti_sdo_ipc_heaps_HeapMemMP_Instance_finalize__F
00816860   ti_sdo_ipc_notifyDrivers_NotifyDriverShm_disableEvent__E
00816ac0   xdc_runtime_Startup_startMods__I
00816d20   xdc_runtime_System_printfExtend__I
00816f80   __c6xabi_divull
00817640   ti_sysbios_family_c64p_Exception_internalHandler__I
00817880   ti_sysbios_knl_Semaphore_post__E
00817ce0   ti_sysbios_family_c64p_Hwi_reconfig__E
00817f00   ti_sysbios_knl_Swi_run__I
00818120   ti_sysbios_knl_Task_schedule__I
00818340   ti_sysbios_knl_Task_startup__E
00818560   GateMP_enter
00818760   GateMP_leave
00818960   ListMP_openByAddr
00818d60   ti_sysbios_family_c64p_Hwi_dispatchAlways
00819160   ti_sdo_ipc_family_c647x_MultiProcSetup_init__I
00819360   ti_sdo_ipc_notifyDrivers_NotifyDriverShm_sendEvent__E
00819560   ti_sdo_ipc_transports_TransportShm_Instance_finalize__F
00819760   GateMP_open
00819940   cache_wbL2
0081998c   cache_wbL1D
008199d8   cache_wbInvL2
00819a28   cache_wbInvL1D
00819a74   cache_invL2
00819ac4   cache_invL1D
00819b20   ti_sdo_ipc_GateMP_attach__E
00819b20   ti_sdo_ipc_GateMP_attach__F
00819d00   ti_sdo_ipc_GateMP_getFreeResource__I
00819ee0   ti_sysbios_knl_Task_postInit__I
0081a0c0   ti_sysbios_timers_timer64_Timer_getFreq__E
0081a2a0   HeapMemMP_openByAddr
0081a620   ti_sdo_ipc_notifyDrivers_NotifyDriverShm_registerEvent__E
0081a7e0   ti_sysbios_knl_Swi_Instance_init__F
0081a9a0   ti_sysbios_knl_Task_checkStacks__E
0081ab60   ti_sysbios_timers_timer64_Timer_setPeriodMicroSecs__E
0081ad20   HOSTrename
0081aec0   SharedRegion_getCacheLineSize
0081b060   SharedRegion_getHeap
0081b200   SharedRegion_isCacheEnabled
0081b3a0   __c6xabi_divul
0081b540   ti_sdo_ipc_GateMP_openRegion0Reserved__E
0081b540   ti_sdo_ipc_GateMP_openRegion0Reserved__F
0081b6e0   ti_sdo_ipc_notifyDrivers_NotifyDriverShm_enableEvent__E
0081b880   ti_sdo_ipc_notifyDrivers_NotifyDriverShm_unregisterEvent__E
0081ba20   ti_sdo_ipc_nsremote_NameServerRemoteNotify_attach__E
0081ba20   ti_sdo_utils_NameServer_SetupProxy_attach__E
0081bbc0   ti_sysbios_gates_GateMutex_enter__E
0081bd60   ti_sysbios_timers_timer64_Timer_start__E
0081bf00   MultiProc_setLocalId
0081c080   NameServer_getHandle
0081c200   Notify_intLineRegistered
0081c500   setvbuf
0081c680   ti_sysbios_family_c64p_Exception_dispatch__E
0081c800   ti_sdo_ipc_MessageQ_registerTransport__E
0081c800   ti_sdo_ipc_MessageQ_registerTransport__F
0081c980   ti_sdo_ipc_Notify_Module_startup__E
0081c980   ti_sdo_ipc_Notify_Module_startup__F
0081cb00   ti_sdo_ipc_gates_GatePeterson_enter__E
0081cc80   ti_sdo_utils_NameServer_Module_startup__E
0081cc80   ti_sdo_utils_NameServer_Module_startup__F
0081ce00   ti_sysbios_heaps_HeapMem_Instance_init__F
0081cf80   ti_sysbios_knl_Swi_schedule__I
0081d100   ti_sysbios_knl_Task_unblockI__E
0081d280   xdc_runtime_Text_putSite__E
0081d280   xdc_runtime_Text_putSite__F
0081d400   ti_sdo_ipc_GateMP_createLocal__E
0081d400   ti_sdo_ipc_GateMP_createLocal__F
0081d560   ti_sdo_ipc_MessageQ_unregisterTransport__E
0081d560   ti_sdo_ipc_MessageQ_unregisterTransport__F
0081d6c0   ti_sdo_ipc_gates_GateHWSem_Instance_init__F
0081d820   ti_sdo_ipc_transports_TransportShm_sharedMemReq__E
0081d820   ti_sdo_ipc_transports_TransportShm_sharedMemReq__F
0081d980   ti_sdo_utils_NameServer_isRegistered__E
0081dae0   ti_sdo_utils_NameServer_registerRemoteDriver__E
0081dc40   ti_sdo_utils_NameServer_unregisterRemoteDriver__E
0081dda0   GateMP_close
0081dee0   Notify_attach
0081e020   _auto_init_elf
0081e2a0   fputc
0081e520   ti_sdo_ipc_Notify_exec__E
0081e520   ti_sdo_ipc_Notify_exec__F
0081e660   ti_sysbios_family_c64p_Hwi_Module_startup__E
0081e660   ti_sysbios_family_c64p_Hwi_Module_startup__F
0081e7a0   ti_sysbios_family_c66_Cache_Module_startup__E
0081e7a0   ti_sysbios_family_c66_Cache_Module_startup__F
0081e8e0   ti_sysbios_gates_GateSwi_enter__E
0081ea20   ti_sysbios_knl_Clock_Instance_finalize__F
0081eb60   ti_sysbios_knl_Semaphore_Instance_init__F
0081eca0   ti_sysbios_knl_Swi_post__E
0081ede0   ti_sysbios_knl_Task_blockI__E
0081ef20   ti_sysbios_knl_Task_yield__E
0081f180   _wrt_ok
0081f2a0   fclose
0081f3c0   generate
0081f600   ti_sdo_ipc_MessageQ_Module_startup__E
0081f600   ti_sdo_ipc_MessageQ_Module_startup__F
0081f720   ti_sdo_ipc_family_c647x_Interrupt_intRegister__E
0081f720   ti_sdo_ipc_notifyDrivers_NotifyDriverShm_InterruptProxy_intRegister__E
0081f840   ti_sdo_ipc_nsremote_NameServerRemoteNotify_Instance_finalize__F
0081f960   HOSTlseek
0081fa60   fflush
0081fc60   ti_sdo_ipc_GateMP_start__E
0081fc60   ti_sdo_ipc_GateMP_start__F
0081fd60   ti_sdo_ipc_Notify_Instance_finalize__F
0081fe60   ti_sdo_ipc_Notify_Object__create__S
0081ff60   ti_sdo_ipc_SharedRegion_attach__E
0081ff60   ti_sdo_ipc_SharedRegion_attach__F
00820060   ti_sdo_ipc_SharedRegion_clearReservedMemory__E
00820060   ti_sdo_ipc_SharedRegion_clearReservedMemory__F
00820160   ti_sdo_ipc_family_c647x_Interrupt_Module_startup__E
00820160   ti_sdo_ipc_family_c647x_Interrupt_Module_startup__F
00820260   ti_sdo_ipc_gates_GateHWSem_Module_startup__E
00820260   ti_sdo_ipc_gates_GateHWSem_Module_startup__F
00820360   ti_sdo_ipc_gates_GateMPSupportNull_enter__E
00820460   ti_sdo_ipc_gates_GateMPSupportNull_leave__E
00820560   ti_sdo_ipc_gates_GatePeterson_Object__create__S
00820660   ti_sdo_ipc_nsremote_NameServerRemoteNotify_Object__create__S
00820760   ti_sdo_ipc_MessageQ_SetupTransportProxy_attach__E
00820760   ti_sdo_ipc_transports_TransportShmSetup_attach__E
00820860   ti_sdo_ipc_transports_TransportShm_Object__create__S
00820960   ti_sysbios_family_c64p_Hwi_Object__create__S
00820a60   ti_sysbios_gates_GateMutexPri_leave__E
00820b60   ti_sysbios_knl_Clock_startI__E
00820c60   ti_sysbios_knl_Swi_Object__create__S
00820d60   ti_sysbios_knl_Swi_restoreHwi__E
00820e60   xdc_runtime_Core_deleteObject__I
00820f60   xdc_runtime_Startup_exec__E
00820f60   xdc_runtime_Startup_exec__F
00821060   xdc_runtime_Text_putMod__E
00821060   xdc_runtime_Text_putMod__F
00821160   xdc_runtime_Text_visitRope2__I
00821260   HOSTopen
00821420   atoi
00821500   close
008215e0   __TI_zero_init
008216c0   exit
008217a0   ltoa
00821880   tsk0_func
00821948   main
00821960   memset
00821a40   ti_sdo_ipc_GateMP_Object__create__S
00821b20   ti_sdo_ipc_ListMP_Object__create__S
00821c00   ti_sdo_ipc_Notify_SetupProxy_attach__E
00821c00   ti_sdo_ipc_family_c647x_NotifySetup_attach__E
00821ce0   ti_sdo_ipc_gates_GateHWSem_enter__E
00821dc0   ti_sdo_ipc_heaps_HeapMemMP_Object__create__S
00821ea0   ti_sdo_ipc_notifyDrivers_NotifyDriverShm_Object__create__S
00821f80   ti_sysbios_family_c64p_Hwi_Instance_finalize__F
00822060   ti_sysbios_family_c64p_Hwi_Instance_init__F
00822140   ti_sysbios_knl_Clock_start__E
00822220   ti_sysbios_hal_Timer_TimerProxy_startup__E
00822220   ti_sysbios_hal_Timer_startup__E
00822220   ti_sysbios_timers_timer64_Timer_startup__E
00822300   xdc_runtime_Error_print__E
00822300   xdc_runtime_Error_print__F
008223e0   xdc_runtime_Memory_alloc__E
008223e0   xdc_runtime_Memory_alloc__F
008224c0   xdc_runtime_knl_GateThread_Object__create__S
008225a0   core1
00822660   core2
00822720   core3
008227e0   core4
008228a0   core5
00822960   core6
00822a20   HOSTread
00822ae0   HOSTunlink
00822ba0   HOSTwrite
00822c60   HeapMemMP_create
00822d20   ListMP_create
00822de0   __cxa_finalize
00822ea0   __c6xabi_divu
00822ea0   __divu
00822f60   _cleanup
00823020   _doflush
008230e0   fseek
008231a0   lseek
00823260   ti_sdo_ipc_GateMP_getRegion0ReservedSize__E
00823260   ti_sdo_ipc_GateMP_getRegion0ReservedSize__F
00823320   ti_sdo_ipc_Notify_execMany__I
008233e0   ti_sdo_ipc_family_c647x_Interrupt_intShmStub__I
008234a0   ti_sysbios_BIOS_errorRaiseHook__I
00823560   ti_sysbios_gates_GateAll_leave__E
00823620   ti_sysbios_heaps_HeapMem_getStats__E
008236e0   ti_sysbios_knl_Clock_logTick__E
008237a0   ti_sysbios_knl_Swi_Instance_finalize__F
00823860   ti_sysbios_timers_timer64_Timer_stop__E
00823920   write
008239e0   xdc_runtime_System_formatNum__I
00823aa0   HOSTclose
00823b40   __c6xabi_fltulld
00823be0   __c6xabi_remu
00823be0   __remu
00823c80   _c_int00
00823f00   ti_sysbios_family_c64p_Hwi_plug__E
00823fa0   display
008240e0   memcpy
00824180   ti_sdo_ipc_family_c647x_Interrupt_intUnregister__E
00824180   ti_sdo_ipc_notifyDrivers_NotifyDriverShm_InterruptProxy_intUnregister__E
00824220   ti_sdo_ipc_gates_GatePeterson_leave__E
008242c0   ti_sdo_ipc_notifyDrivers_NotifyDriverShm_Instance_finalize__F
00824360   ti_sysbios_heaps_HeapMem_init__I
00824400   ti_sysbios_knl_Clock_Object__create__S
008244a0   xdc_runtime_Assert_raise__I
00824540   GateMP_create
00824640   __c6xabi_fixdu
008246c0   __c6xabi_llshl
00824740   ti_sysbios_family_c62_TaskSupport_swap__E
00824740   ti_sysbios_knl_Task_SupportProxy_swap__E
008247c0   add
00824840   malloc
008248c0   printf
00824940   readmsg
008249c0   ti_sdo_ipc_gates_GateHWSem_Object__create__S
00824a40   ti_sdo_ipc_gates_GateMPSupportNull_Object__create__S
00824ac0   ti_sdo_ipc_nsremote_NameServerRemoteNotify_detach__E
00824ac0   ti_sdo_utils_NameServer_SetupProxy_detach__E
00824b40   ti_sdo_ipc_transports_TransportShm_swiFxn__I
00824bc0   ti_sdo_utils_List_Object__create__S
00824c40   ti_sysbios_BIOS_exitFunc__I
00824cc0   ti_sysbios_BIOS_exit__E
00824d40   ti_sysbios_family_c62_TaskSupport_start__E
00824d40   ti_sysbios_knl_Task_SupportProxy_start__E
00824dc0   ti_sysbios_family_c64p_Exception_Module_startup__E
00824dc0   ti_sysbios_family_c64p_Exception_Module_startup__F
00824e40   ti_sysbios_family_c64p_Hwi_eventMap__E
00824ec0   ti_sysbios_family_c66_Cache_invL1pAll__E
00824f40   ti_sysbios_gates_GateAll_Object__create__S
00824fc0   ti_sysbios_gates_GateHwi_Object__create__S
00825040   ti_sysbios_gates_GateMutexPri_Object__create__S
008250c0   ti_sysbios_gates_GateMutex_Object__create__S
00825140   ti_sysbios_gates_GateSwi_Object__create__S
008251c0   ti_sysbios_gates_GateSwi_leave__E
00825240   ti_sysbios_hal_Hwi_checkStack
008252c0   ti_sysbios_heaps_HeapMem_Object__create__S
00825340   ti_sysbios_knl_Clock_Module_startup__E
00825340   ti_sysbios_knl_Clock_Module_startup__F
008253c0   ti_sysbios_knl_Clock_doTick__I
00825440   ti_sysbios_knl_Clock_getTicks__E
008254c0   ti_sysbios_knl_Idle_loop__E
00825540   ti_sysbios_knl_Queue_Object__create__S
008255c0   ti_sysbios_knl_Semaphore_Object__create__S
00825640   ti_sysbios_knl_Semaphore_pendTimeout__I
008256c0   ti_sysbios_knl_Swi_startup__E
00825740   ti_sysbios_knl_Task_restore__E
008257c0   ti_sysbios_timers_timer64_Timer_getCount__E
008257c0   ti_sysbios_timers_timer64_Timer_getExpiredCounts__E
00825840   ti_sysbios_timers_timer64_Timer_getPeriod__E
008258c0   ti_sysbios_xdcruntime_GateThreadSupport_Object__create__S
00825940   remove
00825940   unlink
008259c0   xdc_runtime_Core_assignLabel__I
00825a40   xdc_runtime_Core_assignParams__I
00825ac0   xdc_runtime_System_atexit__E
00825ac0   xdc_runtime_System_atexit__F
00825b40   xdc_runtime_System_rtsExit__I
00825bc0   xdc_runtime_Text_printVisFxn__I
00825c40   xdc_runtime_Text_xprintf__I
00825cc0   GateMP_Params_init
00825d20   HeapMemMP_Params_init
00825d80   __c6xabi_frcmpyd_div
00825de0   __c6xabi_llshru
00825e40   _subcull
00825ea0   memccpy
00825f00   ti_sdo_ipc_GateMP_Object__delete__S
00825f60   ti_sdo_ipc_ListMP_Object__delete__S
00825fc0   ti_sdo_ipc_Notify_SetupProxy_sharedMemReq__E
00825fc0   ti_sdo_ipc_family_c647x_NotifySetup_sharedMemReq__E
00826020   ti_sdo_ipc_gates_GateHWSem_Object__delete__S
00826080   ti_sdo_ipc_gates_GateHWSem_leave__E
008260e0   ti_sdo_ipc_gates_GateMPSupportNull_Object__delete__S
00826140   ti_sdo_ipc_gates_GatePeterson_Instance_finalize__F
008261a0   ti_sdo_ipc_gates_GatePeterson_Object__delete__S
00826200   ti_sdo_ipc_GateMP_RemoteCustom1Proxy_sharedMemReq__E
00826200   ti_sdo_ipc_gates_GatePeterson_sharedMemReq__E
00826260   ti_sdo_ipc_heaps_HeapMemMP_Object__delete__S
008262c0   ti_sdo_ipc_notifyDrivers_NotifyDriverShm_Object__delete__S
00826320   ti_sdo_ipc_notifyDrivers_NotifyDriverShm_setNotifyHandle__E
00826380   ti_sdo_ipc_nsremote_NameServerRemoteNotify_Object__delete__S
008263e0   ti_sdo_ipc_MessageQ_SetupTransportProxy_sharedMemReq__E
008263e0   ti_sdo_ipc_transports_TransportShmSetup_sharedMemReq__E
00826440   ti_sdo_ipc_transports_TransportShm_Object__delete__S
008264a0   ti_sysbios_BIOS_registerRTSLock__I
00826500   ti_sysbios_family_c64p_Hwi_Object__delete__S
00826560   ti_sysbios_gates_GateAll_Object__delete__S
008265c0   ti_sysbios_gates_GateAll_enter__E
00826620   ti_sysbios_gates_GateHwi_Object__delete__S
00826680   ti_sysbios_gates_GateMutexPri_Object__delete__S
008266e0   ti_sysbios_gates_GateMutex_Instance_init__F
00826740   ti_sysbios_gates_GateMutex_Object__delete__S
008267a0   ti_sysbios_gates_GateSwi_Object__delete__S
00826800   ti_sysbios_hal_Hwi_initStack
00826860   ti_sysbios_heaps_HeapMem_Object__delete__S
008268c0   ti_sysbios_knl_Swi_Module_startup__E
008268c0   ti_sysbios_knl_Swi_Module_startup__F
00826920   ti_sysbios_knl_Task_allBlockedFunction__I
00826980   ti_sysbios_knl_Task_enter__I
008269e0   ti_sysbios_xdcruntime_GateThreadSupport_Object__delete__S
00826a40   writemsg
00826a98   C$$IO$$
00826aa0   xdc_runtime_GateNull_Object__create__S
00826b00   xdc_runtime_GateNull_Object__delete__S
00826b60   xdc_runtime_Memory_calloc__E
00826b60   xdc_runtime_Memory_calloc__F
00826bc0   xdc_runtime_Memory_valloc__E
00826bc0   xdc_runtime_Memory_valloc__F
00826c20   xdc_runtime_SysStd_abort__E
00826c20   xdc_runtime_SysStd_abort__F
00826c20   xdc_runtime_System_SupportProxy_abort__E
00826c80   xdc_runtime_System_aprintf_va__E
00826c80   xdc_runtime_System_aprintf_va__F
00826c80   xdc_runtime_System_avprintf__E
00826c80   xdc_runtime_System_avprintf__F
00826ce0   xdc_runtime_System_printf_va__E
00826ce0   xdc_runtime_System_printf_va__F
00826ce0   xdc_runtime_System_vprintf__E
00826ce0   xdc_runtime_System_vprintf__F
00826d40   xdc_runtime_Text_cordText__E
00826d40   xdc_runtime_Text_cordText__F
00826da0   xdc_runtime_knl_GateThread_Object__delete__S
00826e00   __c6xabi_isinf
00826e80   _args_main
00826ec0   ti_sysbios_family_c62_TaskSupport_buildTaskStack
00826f00   ti_sysbios_family_xxx_Hwi_switchToIsrStack
00826f40   free
00826fc0   ti_sdo_ipc_family_c647x_Interrupt_intClear__E
00826fc0   ti_sdo_ipc_notifyDrivers_NotifyDriverShm_InterruptProxy_intClear__E
00827000   ti_sdo_ipc_family_c647x_Interrupt_intSend__E
00827000   ti_sdo_ipc_notifyDrivers_NotifyDriverShm_InterruptProxy_intSend__E
00827040   ti_sdo_ipc_gates_GateHWSem_Handle__label__S
00827080   ti_sdo_ipc_gates_GateMPSupportNull_Handle__label__S
008270c0   ti_sdo_ipc_gates_GatePeterson_Handle__label__S
00827100   ti_sdo_ipc_heaps_HeapMemMP_Handle__label__S
00827140   ti_sdo_ipc_notifyDrivers_NotifyDriverShm_Handle__label__S
00827180   ti_sdo_ipc_notifyDrivers_NotifyDriverShm_disable__E
008271c0   ti_sdo_ipc_notifyDrivers_NotifyDriverShm_enable__E
00827200   ti_sdo_ipc_nsremote_NameServerRemoteNotify_Handle__label__S
00827240   ti_sdo_ipc_nsremote_NameServerRemoteNotify_sharedMemReq__E
00827240   ti_sdo_utils_NameServer_SetupProxy_sharedMemReq__E
00827280   ti_sdo_ipc_transports_TransportShm_Handle__label__S
008272c0   ti_sdo_utils_NameServer_Module__startupDone__F
008272c0   ti_sdo_utils_NameServer_Module__startupDone__S
00827300   ti_sdo_utils_NameServer_Object__get__S
00827340   ti_sysbios_BIOS_startFunc__I
00827380   ti_sysbios_BIOS_start__E
008273c0   ti_sysbios_family_c64p_Hwi_Module__startupDone__F
008273c0   ti_sysbios_family_c64p_Hwi_Module__startupDone__S
00827400   ti_sysbios_family_c64p_Hwi_disableInterrupt__E
00827400   ti_sysbios_hal_Hwi_HwiProxy_disableInterrupt__E
00827400   ti_sysbios_hal_Hwi_disableInterrupt__E
00827440   ti_sysbios_family_c64p_Hwi_enableInterrupt__E
00827440   ti_sysbios_hal_Hwi_HwiProxy_enableInterrupt__E
00827440   ti_sysbios_hal_Hwi_enableInterrupt__E
00827480   ti_sysbios_gates_GateAll_Handle__label__S
008274c0   ti_sysbios_gates_GateHwi_Handle__label__S
00827500   ti_sysbios_gates_GateMutexPri_Handle__label__S
00827540   ti_sysbios_gates_GateMutexPri_Instance_finalize__F
00827580   ti_sysbios_gates_GateMutexPri_Instance_init__F
008275c0   ti_sysbios_gates_GateMutexPri_Object__destruct__S
00827600   ti_sysbios_gates_GateMutex_Handle__label__S
00827640   ti_sysbios_gates_GateMutex_Instance_finalize__F
00827680   ti_sysbios_gates_GateMutex_leave__E
008276c0   ti_sysbios_gates_GateSwi_Handle__label__S
00827700   ti_sysbios_hal_Timer_Module__startupDone__F
00827700   ti_sysbios_hal_Timer_Module__startupDone__S
00827740   ti_sysbios_heaps_HeapMem_Handle__label__S
00827780   ti_sysbios_heaps_HeapMem_Object__get__S
008277c0   ti_sysbios_knl_Clock_Object__destruct__S
00827800   ti_sysbios_knl_Semaphore_Instance_finalize__F
00827840   ti_sysbios_knl_Semaphore_Object__destruct__S
00827880   ti_sysbios_knl_Swi_Object__destruct__S
008278c0   ti_sysbios_knl_Swi_Object__get__S
00827900   ti_sysbios_knl_Task_Object__get__S
00827940   ti_sysbios_knl_Task_sleepTimeout__I
00827980   ti_sysbios_timers_timer64_Timer_Module__startupDone__F
00827980   ti_sysbios_timers_timer64_Timer_Module__startupDone__S
008279c0   ti_sysbios_xdcruntime_GateThreadSupport_Instance_finalize__F
00827a00   ti_sysbios_xdcruntime_GateThreadSupport_Instance_init__F
00827a40   ti_sysbios_xdcruntime_GateThreadSupport_enter__E
00827a40   ti_sysbios_xdcruntime_GateThreadSupport_enter__F
00827a80   ti_sysbios_xdcruntime_GateThreadSupport_leave__E
00827a80   ti_sysbios_xdcruntime_GateThreadSupport_leave__F
00827ac0   xdc_runtime_Error_check__E
00827ac0   xdc_runtime_Error_check__F
00827b00   xdc_runtime_Error_init__E
00827b00   xdc_runtime_Error_init__F
00827b40   xdc_runtime_GateNull_Handle__label__S
00827b80   xdc_runtime_Gate_leaveSystem__E
00827b80   xdc_runtime_Gate_leaveSystem__F
00827bc0   xdc_runtime_Memory_free__E
00827bc0   xdc_runtime_Memory_free__F
00827c00   xdc_runtime_Registry_findById__E
00827c00   xdc_runtime_Registry_findById__F
00827c40   xdc_runtime_System_abort__E
00827c40   xdc_runtime_System_abort__F
00827c80   xdc_runtime_System_aprintf__E
00827cc0   xdc_runtime_System_printf__E
00827d00   xdc_runtime_Text_ropeText__E
00827d00   xdc_runtime_Text_ropeText__F
00827d40   xdc_runtime_knl_GateThread_Handle__label__S
00827d80   xdc_runtime_knl_GateThread_Instance_finalize__F
00827dc0   xdc_runtime_knl_GateThread_Instance_init__F
00827e00   GateMP_delete
00827e20   MultiProc_self
00827e40   __c6xabi_negll
00827e60   __cxa_atexit
00827e80   __cxa_ia64_exit
00827ea0   __xdc__init
00827ec0   _nop
00827f20   _register_lock
00827f40   _register_unlock
00827f60   ti_sysbios_family_c62_TaskSupport_glue
00827f80   ti_sysbios_family_xxx_Hwi_switchToTaskStack
00827fa0   C$$EXIT
00827fa0   abort
00827fc0   atexit
00827fe0   __TI_decompress_none
00828000   __TI_decompress_rle24
00828040   putc
00828060   putchar
00828080   ti_sdo_ipc_GateMP_Params__init__S
008280a0   ti_sdo_ipc_GateMP_RemoteCustom1Proxy_Object__create__S
008280c0   ti_sdo_ipc_GateMP_RemoteCustom1Proxy_Object__delete__S
008280e0   ti_sdo_ipc_GateMP_RemoteCustom1Proxy_Params__init__S
00828100   ti_sdo_ipc_GateMP_RemoteCustom1Proxy_Proxy__abstract__S
00828120   ti_sdo_ipc_GateMP_RemoteCustom1Proxy_Proxy__delegate__S
00828140   ti_sdo_ipc_GateMP_RemoteCustom2Proxy_Object__create__S
00828160   ti_sdo_ipc_GateMP_RemoteCustom2Proxy_Object__delete__S
00828180   ti_sdo_ipc_GateMP_RemoteCustom2Proxy_Params__init__S
008281a0   ti_sdo_ipc_GateMP_RemoteCustom2Proxy_Proxy__abstract__S
008281c0   ti_sdo_ipc_GateMP_RemoteCustom2Proxy_Proxy__delegate__S
008281e0   ti_sdo_ipc_GateMP_RemoteSystemProxy_Object__create__S
00828200   ti_sdo_ipc_GateMP_RemoteSystemProxy_Object__delete__S
00828220   ti_sdo_ipc_GateMP_RemoteSystemProxy_Params__init__S
00828240   ti_sdo_ipc_GateMP_RemoteSystemProxy_Proxy__abstract__S
00828260   ti_sdo_ipc_GateMP_RemoteSystemProxy_Proxy__delegate__S
00828280   ti_sdo_ipc_GateMP_getSharedAddr__E
00828280   ti_sdo_ipc_GateMP_getSharedAddr__F
008282a0   ti_sdo_ipc_ListMP_Params__init__S
008282c0   ti_sdo_ipc_MessageQ_Object__get__S
008282e0   ti_sdo_ipc_Notify_Module_GateProxy_enter__E
00828300   ti_sdo_ipc_Notify_Module_GateProxy_leave__E
00828320   ti_sdo_ipc_family_c647x_Interrupt_intDisable__E
00828320   ti_sdo_ipc_notifyDrivers_NotifyDriverShm_InterruptProxy_intDisable__E
00828340   ti_sdo_ipc_family_c647x_Interrupt_intEnable__E
00828340   ti_sdo_ipc_notifyDrivers_NotifyDriverShm_InterruptProxy_intEnable__E
00828360   ti_sdo_ipc_Notify_SetupProxy_numIntLines__E
00828360   ti_sdo_ipc_family_c647x_NotifySetup_numIntLines__E
00828380   ti_sdo_ipc_gates_GateHWSem_Params__init__S
008283a0   ti_sdo_ipc_GateMP_RemoteSystemProxy_getReservedMask__E
008283a0   ti_sdo_ipc_gates_GateHWSem_getReservedMask__E
008283c0   ti_sdo_ipc_GateMP_RemoteSystemProxy_query__E
008283c0   ti_sdo_ipc_gates_GateHWSem_query__E
008283c0   ti_sdo_ipc_gates_GateHWSem_query__F
008283e0   ti_sdo_ipc_GateMP_RemoteSystemProxy_sharedMemReq__E
008283e0   ti_sdo_ipc_gates_GateHWSem_sharedMemReq__E
00828400   ti_sdo_ipc_gates_GateMPSupportNull_Instance_init__F
00828420   ti_sdo_ipc_gates_GateMPSupportNull_Params__init__S
00828440   ti_sdo_ipc_GateMP_RemoteCustom2Proxy_getReservedMask__E
00828440   ti_sdo_ipc_gates_GateMPSupportNull_getReservedMask__E
00828460   ti_sdo_ipc_GateMP_RemoteCustom2Proxy_query__E
00828460   ti_sdo_ipc_gates_GateMPSupportNull_query__E
00828460   ti_sdo_ipc_gates_GateMPSupportNull_query__F
00828480   ti_sdo_ipc_GateMP_RemoteCustom2Proxy_sharedMemReq__E
00828480   ti_sdo_ipc_gates_GateMPSupportNull_sharedMemReq__E
008284a0   ti_sdo_ipc_gates_GatePeterson_Params__init__S
008284c0   ti_sdo_ipc_GateMP_RemoteCustom1Proxy_getReservedMask__E
008284c0   ti_sdo_ipc_gates_GatePeterson_getReservedMask__E
008284e0   ti_sdo_ipc_GateMP_RemoteCustom1Proxy_query__E
008284e0   ti_sdo_ipc_gates_GatePeterson_query__E
008284e0   ti_sdo_ipc_gates_GatePeterson_query__F
00828500   ti_sdo_ipc_heaps_HeapMemMP_Params__init__S
00828520   ti_sdo_ipc_heaps_HeapMemMP_isBlocking__E
00828520   ti_sdo_ipc_heaps_HeapMemMP_isBlocking__F
00828540   ti_sdo_ipc_notifyDrivers_NotifyDriverShm_Params__init__S
00828560   ti_sdo_ipc_nsremote_NameServerRemoteNotify_Object__first__S
00828580   ti_sdo_ipc_nsremote_NameServerRemoteNotify_Object__next__S
008285a0   ti_sdo_ipc_nsremote_NameServerRemoteNotify_Params__init__S
008285c0   ti_sdo_ipc_nsremote_NameServerRemoteNotify_cbFxn__I
008285e0   ti_sdo_ipc_MessageQ_SetupTransportProxy_isRegistered__E
008285e0   ti_sdo_ipc_transports_TransportShmSetup_isRegistered__E
00828600   ti_sdo_ipc_transports_TransportShm_Params__init__S
00828620   ti_sdo_ipc_transports_TransportShm_control__E
00828640   ti_sdo_ipc_transports_TransportShm_getStatus__E
00828660   ti_sdo_ipc_transports_TransportShm_notifyFxn__I
00828680   ti_sdo_ipc_transports_TransportShm_setErrFxn__E
00828680   ti_sdo_ipc_transports_TransportShm_setErrFxn__F
008286a0   ti_sdo_utils_List_Instance_init__F
008286c0   ti_sdo_utils_List_Object__destruct__S
008286e0   ti_sdo_utils_List_Object__get__S
00828700   ti_sdo_utils_MultiProc_getClusterId__E
00828700   ti_sdo_utils_MultiProc_getClusterId__F
00828720   ti_sdo_utils_NameServer_Object__first__S
00828740   ti_sdo_utils_NameServer_Object__next__S
00828760   ti_sysbios_BIOS_RtsGateProxy_enter__E
00828780   ti_sysbios_BIOS_RtsGateProxy_leave__E
008287a0   ti_sysbios_BIOS_getCpuFreq__E
008287a0   ti_sysbios_family_c64p_TimestampProvider_getFreq__E
008287a0   xdc_runtime_Timestamp_SupportProxy_getFreq__E
008287a0   xdc_runtime_Timestamp_getFreq__E
008287a0   xdc_runtime_Timestamp_getFreq__F
008287c0   ti_sysbios_BIOS_getThreadType__E
008287e0   ti_sysbios_BIOS_setThreadType__E
00828800   ti_sysbios_family_c62_TaskSupport_Module__startupDone__S
00828820   ti_sysbios_family_c62_TaskSupport_checkStack__E
00828820   ti_sysbios_knl_Task_SupportProxy_checkStack__E
00828840   ti_sysbios_family_c64p_Hwi_Params__init__S
00828860   ti_sysbios_family_c64p_Hwi_clearInterrupt__E
00828860   ti_sysbios_hal_Hwi_HwiProxy_clearInterrupt__E
00828860   ti_sysbios_hal_Hwi_clearInterrupt__E
00828880   ti_sysbios_family_c64p_Hwi_getHandle__E
008288a0   ti_sysbios_family_c64p_Hwi_startup__E
008288a0   ti_sysbios_hal_Hwi_HwiProxy_startup__E
008288a0   ti_sysbios_hal_Hwi_startup__E
008288c0   ti_sysbios_family_c64p_Hwi_switchFromBootStack__E
008288c0   ti_sysbios_hal_Hwi_HwiProxy_switchFromBootStack__E
008288c0   ti_sysbios_hal_Hwi_switchFromBootStack__E
008288e0   ti_sysbios_family_c64p_Hwi_unPluggedInterrupt__I
00828900   ti_sysbios_family_c64p_TimestampProvider_Module_startup__E
00828900   ti_sysbios_family_c64p_TimestampProvider_Module_startup__F
00828920   ti_sysbios_family_c64p_TimestampProvider_get64__E
00828920   xdc_runtime_Timestamp_SupportProxy_get64__E
00828920   xdc_runtime_Timestamp_get64__E
00828920   xdc_runtime_Timestamp_get64__F
00828940   ti_sysbios_family_c64p_tci6488_TimerSupport_enable__E
00828940   ti_sysbios_timers_timer64_Timer_TimerSupportProxy_enable__E
00828960   ti_sysbios_family_c66_Cache_inv__E
00828960   ti_sysbios_hal_Cache_CacheProxy_inv__E
00828960   ti_sysbios_hal_Cache_inv__E
00828980   ti_sysbios_family_c66_Cache_wbInv__E
00828980   ti_sysbios_hal_Cache_CacheProxy_wbInv__E
00828980   ti_sysbios_hal_Cache_wbInv__E
008289a0   ti_sysbios_gates_GateAll_Instance_init__F
008289c0   ti_sysbios_gates_GateAll_query__E
008289c0   ti_sysbios_gates_GateAll_query__F
008289e0   ti_sysbios_gates_GateHwi_Instance_init__F
00828a00   ti_sysbios_gates_GateHwi_enter__E
00828a20   ti_sysbios_gates_GateHwi_leave__E
00828a40   ti_sysbios_gates_GateHwi_query__E
00828a40   ti_sysbios_gates_GateHwi_query__F
00828a40   xdc_runtime_Main_Module_GateProxy_query__E
00828a40   xdc_runtime_System_Module_GateProxy_query__E
00828a60   ti_sysbios_gates_GateMutexPri_query__E
00828a60   ti_sysbios_gates_GateMutexPri_query__F
00828a60   ti_sysbios_xdcruntime_GateProcessSupport_query__F
00828a60   ti_sysbios_xdcruntime_GateThreadSupport_query__E
00828a60   ti_sysbios_xdcruntime_GateThreadSupport_query__F
00828a60   xdc_runtime_knl_GateThread_Proxy_query__E
00828a60   xdc_runtime_knl_GateThread_query__E
00828a60   xdc_runtime_knl_GateThread_query__F
00828a80   ti_sysbios_BIOS_RtsGateProxy_query__E
00828a80   ti_sysbios_gates_GateMutex_query__E
00828a80   ti_sysbios_gates_GateMutex_query__F
00828a80   ti_sysbios_heaps_HeapMem_Module_GateProxy_query__E
00828aa0   ti_sysbios_gates_GateSwi_Instance_init__F
00828ac0   ti_sdo_ipc_Notify_Module_GateProxy_query__E
00828ac0   ti_sysbios_gates_GateSwi_query__E
00828ac0   ti_sysbios_gates_GateSwi_query__F
00828ae0   ti_sysbios_hal_Hwi_HwiProxy_Module__startupDone__S
00828b00   ti_sysbios_hal_Hwi_Module_startup__E
00828b00   ti_sysbios_hal_Hwi_Module_startup__F
00828b20   ti_sysbios_hal_Timer_Module_startup__E
00828b20   ti_sysbios_hal_Timer_Module_startup__F
00828b40   ti_sysbios_hal_Timer_TimerProxy_Module__startupDone__S
00828b60   ti_sysbios_hal_Timer_TimerProxy_getExpiredCounts__E
00828b80   ti_sysbios_hal_Timer_TimerProxy_getPeriod__E
00828ba0   ti_sysbios_hal_Timer_TimerProxy_setNextTick__E
00828bc0   ti_sysbios_heaps_HeapMem_Module_GateProxy_enter__E
00828be0   ti_sysbios_heaps_HeapMem_Module_GateProxy_leave__E
00828c00   ti_sysbios_heaps_HeapMem_isBlocking__E
00828c20   ti_sysbios_knl_Clock_Params__init__S
00828c40   ti_sysbios_knl_Queue_Instance_init__F
00828c60   ti_sysbios_knl_Queue_Object__destruct__S
00828c80   ti_sysbios_knl_Queue_Object__get__S
00828ca0   ti_sysbios_knl_Queue_empty__E
00828cc0   ti_sysbios_knl_Semaphore_Params__init__S
00828ce0   ti_sysbios_knl_Swi_Params__init__S
00828d00   ti_sysbios_knl_Swi_disable__E
00828d20   ti_sysbios_knl_Task_Object__first__S
00828d40   ti_sysbios_knl_Task_Object__next__S
00828d60   ti_sysbios_knl_Task_SupportProxy_Module__startupDone__S
00828d80   ti_sysbios_knl_Task_disable__E
00828da0   ti_sysbios_knl_Task_getPri__E
00828dc0   ti_sysbios_knl_Task_self__E
00828de0   ti_sysbios_timers_timer64_Timer_setNextTick__E
00828e00   xdc_runtime_GateNull_enter__E
00828e00   xdc_runtime_GateNull_enter__F
00828e20   xdc_runtime_GateNull_leave__E
00828e20   xdc_runtime_GateNull_leave__F
00828e40   xdc_runtime_GateNull_query__E
00828e40   xdc_runtime_GateNull_query__F
00828e60   xdc_runtime_Gate_enterSystem__E
00828e60   xdc_runtime_Gate_enterSystem__F
00828ec0   xdc_runtime_Memory_HeapProxy_alloc__E
00828ee0   xdc_runtime_Memory_HeapProxy_free__E
00828f00   xdc_runtime_Memory_getMaxDefaultTypeAlign__E
00828f00   xdc_runtime_Memory_getMaxDefaultTypeAlign__F
00828f20   xdc_runtime_Startup_Module__startupDone__S
00828f40   xdc_runtime_Startup_exec__I
00828f60   xdc_runtime_Startup_reset__I
00828f80   xdc_runtime_Startup_rtsDone__E
00828f80   xdc_runtime_Startup_rtsDone__F
00828fa0   xdc_runtime_SysStd_exit__E
00828fa0   xdc_runtime_SysStd_exit__F
00828fa0   xdc_runtime_System_SupportProxy_exit__E
00828fc0   xdc_runtime_SysStd_putch__E
00828fc0   xdc_runtime_SysStd_putch__F
00828fc0   xdc_runtime_System_SupportProxy_putch__E
00828fe0   xdc_runtime_SysStd_ready__E
00828fe0   xdc_runtime_SysStd_ready__F
00828fe0   xdc_runtime_System_SupportProxy_ready__E
00829000   xdc_runtime_System_Module_GateProxy_enter__E
00829020   xdc_runtime_System_Module_GateProxy_leave__E
00829040   xdc_runtime_System_Module_startup__E
00829040   xdc_runtime_System_Module_startup__F
00829060   xdc_runtime_System_exit__E
00829060   xdc_runtime_System_exit__F
00829080   xdc_runtime_System_lastFxn__I
008290a0   xdc_runtime_System_sprintf_va__E
008290a0   xdc_runtime_System_sprintf_va__F
008290a0   xdc_runtime_System_vsprintf__E
008290a0   xdc_runtime_System_vsprintf__F
008290c0   xdc_runtime_Text_visitRope__I
008290e0   xdc_runtime_knl_GateThread_Module__startupDone__S
00829100   xdc_runtime_knl_GateThread_Proxy_Object__create__S
00829120   xdc_runtime_knl_GateThread_Proxy_Object__delete__S
00829140   xdc_runtime_knl_GateThread_Proxy_enter__E
00829160   xdc_runtime_knl_GateThread_Proxy_leave__E
00829180   xdc_runtime_knl_GateThread_enter__E
00829180   xdc_runtime_knl_GateThread_enter__F
008291a0   xdc_runtime_knl_GateThread_leave__E
008291a0   xdc_runtime_knl_GateThread_leave__F
008291c0   ti_sdo_utils_NameServer_Module_State_0_nsRemoteHandle__A
008291e0   ti_sysbios_heaps_HeapMem_Instance_State_0_buf__A
008311e0   ti_sysbios_knl_Task_Instance_State_0_hookEnv__A
008311f0   ti_sysbios_knl_Task_Instance_State_1_hookEnv__A
008311f8   ti_sysbios_knl_Task_Instance_State_0_stack__A
008319f8   ti_sysbios_knl_Task_Instance_State_1_stack__A
00832200   semaphoresToClean
00832390   _tmpnams
008325b0   interCoreSem
008325d0   xdc_runtime_Text_charTab__A
00834fb4   ti_sysbios_family_c66_Cache_initSize__C
00834fc0   ti_sysbios_family_c66_Cache_marvalues__C
008353c0   xdc_runtime_Text_nodeTab__A
00835540   _ctypes_
0083583c   ti_sdo_ipc_GateMP_A_invalidClose__C
00835840   xdc_runtime_Startup_sfxnTab__A
00835880   ti_sdo_ipc_notifyDrivers_NotifyDriverShm_Module__FXNS__C
008358b8   ti_sdo_ipc_GateMP_Object__PARAMS__C
008358ec   ti_sdo_ipc_notifyDrivers_NotifyDriverShm_Object__PARAMS__C
00835954   ti_sdo_ipc_heaps_HeapMemMP_Object__PARAMS__C
00835984   ti_sysbios_family_c64p_Hwi_Object__PARAMS__C
008359e0   ti_sdo_ipc_ListMP_Object__PARAMS__C
00835a0c   ti_sdo_ipc_gates_GateHWSem_Module__FXNS__C
00835a38   ti_sdo_ipc_gates_GateMPSupportNull_Module__FXNS__C
00835a64   ti_sdo_ipc_gates_GatePeterson_Module__FXNS__C
00835a90   ti_sdo_ipc_heaps_HeapMemMP_Module__FXNS__C
00835ab8   ti_sdo_ipc_nsremote_NameServerRemoteNotify_Module__FXNS__C
00835ae0   ti_sdo_ipc_transports_TransportShm_Module__FXNS__C
00835b08   ti_sdo_ipc_transports_TransportShm_Object__PARAMS__C
00835b30   ti_sysbios_heaps_HeapMem_Module__FXNS__C
00835b58   ti_sysbios_knl_Swi_Object__PARAMS__C
00835ba8   ti_sdo_ipc_gates_GateHWSem_Object__PARAMS__C
00835bcc   ti_sdo_ipc_gates_GateMPSupportNull_Object__PARAMS__C
00835bf0   ti_sdo_ipc_gates_GatePeterson_Object__PARAMS__C
00835c14   ti_sysbios_gates_GateAll_Module__FXNS__C
00835c38   ti_sysbios_gates_GateHwi_Module__FXNS__C
00835c5c   ti_sysbios_gates_GateMutexPri_Module__FXNS__C
00835c80   ti_sysbios_gates_GateMutex_Module__FXNS__C
00835ca4   ti_sysbios_gates_GateSwi_Module__FXNS__C
00835cc8   ti_sysbios_knl_Clock_Object__PARAMS__C
00835cec   ti_sysbios_knl_Semaphore_Object__PARAMS__C
00835d10   xdc_runtime_GateNull_Module__FXNS__C
00835d34   xdc_runtime_knl_GateThread_Module__FXNS__C
00835d9c   ti_sdo_ipc_GateMP_Object__DESC__C
00835dbc   ti_sdo_ipc_ListMP_Object__DESC__C
00835ddc   ti_sdo_ipc_Notify_Object__DESC__C
00835dfc   ti_sdo_ipc_gates_GateHWSem_Object__DESC__C
00835e1c   ti_sdo_ipc_gates_GateMPSupportNull_Object__DESC__C
00835e3c   ti_sdo_ipc_gates_GatePeterson_Object__DESC__C
00835e5c   ti_sdo_ipc_heaps_HeapMemMP_Object__DESC__C
00835e7c   ti_sdo_ipc_notifyDrivers_NotifyDriverShm_Object__DESC__C
00835e9c   ti_sdo_ipc_nsremote_NameServerRemoteNotify_Object__DESC__C
00835ebc   ti_sdo_ipc_nsremote_NameServerRemoteNotify_Object__PARAMS__C
00835edc   ti_sdo_ipc_transports_TransportShm_Object__DESC__C
00835efc   ti_sdo_utils_List_Object__DESC__C
00835f1c   ti_sysbios_family_c64p_Hwi_Object__DESC__C
00835f3c   ti_sysbios_gates_GateAll_Object__DESC__C
00835f5c   ti_sysbios_gates_GateHwi_Object__DESC__C
00835f7c   ti_sysbios_gates_GateMutexPri_Object__DESC__C
00835f9c   ti_sysbios_gates_GateMutex_Object__DESC__C
00835fbc   ti_sysbios_gates_GateSwi_Object__DESC__C
00835fdc   ti_sysbios_heaps_HeapMem_Object__DESC__C
00835ffc   ti_sysbios_heaps_HeapMem_Object__PARAMS__C
0083601c   ti_sysbios_knl_Clock_Object__DESC__C
0083603c   ti_sysbios_knl_Queue_Object__DESC__C
0083605c   ti_sysbios_knl_Semaphore_Object__DESC__C
0083607c   ti_sysbios_knl_Swi_Object__DESC__C
0083609c   ti_sysbios_xdcruntime_GateThreadSupport_Object__DESC__C
008360bc   xdc_runtime_GateNull_Object__DESC__C
008360dc   ti_sdo_ipc_GateMP_A_invalidDelete__C
008360e0   xdc_runtime_Startup_sfxnRts__A
00836100   xdc_runtime_knl_GateThread_Object__DESC__C
00836120   ti_sdo_ipc_Notify_Object__PARAMS__C
00836138   ti_sdo_utils_List_Object__PARAMS__C
00836150   ti_sysbios_gates_GateAll_Object__PARAMS__C
00836168   ti_sysbios_gates_GateHwi_Object__PARAMS__C
00836180   ti_sysbios_gates_GateMutexPri_Object__PARAMS__C
00836198   ti_sysbios_gates_GateMutex_Object__PARAMS__C
008361b0   ti_sysbios_gates_GateSwi_Object__PARAMS__C
008361c8   ti_sysbios_knl_Queue_Object__PARAMS__C
008361e0   ti_sysbios_knl_Task_hooks__A
008361f8   ti_sysbios_xdcruntime_GateThreadSupport_Object__PARAMS__C
00836210   xdc_runtime_GateNull_Object__PARAMS__C
00836228   xdc_runtime_knl_GateThread_Object__PARAMS__C
00836258   ti_sysbios_knl_Idle_funcList__C
00836274   ti_sysbios_knl_Task_hooks__C
0083627c   ti_sdo_ipc_GateMP_E_gateUnavailable__C
00836280   ti_sdo_ipc_family_c647x_MultiProcSetup_procMap__A
00836290   ti_sdo_utils_MultiProc_procIdList__A
008362a0   xdc_runtime_Startup_firstFxns__A
008362ac   xdc_runtime_Startup_firstFxns__C
008362b4   xdc_runtime_Startup_lastFxns__C
008362bc   ti_sdo_ipc_GateMP_E_localGate__C
008362c0   ti_sdo_ipc_GateMP_LM_create__C
008362c4   ti_sdo_ipc_GateMP_LM_delete__C
008362c8   ti_sdo_ipc_GateMP_LM_enter__C
008362cc   ti_sdo_ipc_GateMP_LM_leave__C
008362d0   ti_sdo_ipc_GateMP_LM_open__C
008362d4   ti_sdo_ipc_GateMP_Module__diagsEnabled__C
008362d8   ti_sdo_ipc_GateMP_Module__diagsIncluded__C
008362dc   ti_sdo_ipc_GateMP_Module__diagsMask__C
008362e0   ti_sdo_ipc_GateMP_Module__loggerFxn2__C
008362e4   ti_sdo_ipc_GateMP_Module__loggerFxn4__C
008362e8   ti_sdo_ipc_GateMP_Module__loggerObj__C
008362ec   ti_sdo_ipc_Ipc_A_addrNotCacheAligned__C
008362f0   ti_sdo_ipc_Ipc_A_addrNotInSharedRegion__C
008362f4   ti_sdo_ipc_Ipc_A_internal__C
008362f8   ti_sdo_ipc_Ipc_A_invArgument__C
008362fc   ti_sdo_ipc_Ipc_A_invParam__C
00836300   ti_sdo_ipc_Ipc_A_nullArgument__C
00836304   ti_sdo_ipc_Ipc_A_nullPointer__C
00836308   ti_sdo_ipc_Ipc_E_internal__C
0083630c   ti_sdo_ipc_Ipc_E_nameFailed__C
00836310   ti_sdo_ipc_Ipc_E_versionMismatch__C
00836314   ti_sdo_ipc_Ipc_Module__diagsEnabled__C
00836318   ti_sdo_ipc_Ipc_Module__diagsIncluded__C
0083631c   ti_sdo_ipc_Ipc_Module__diagsMask__C
00836320   ti_sdo_ipc_Ipc_numUserFxns__C
00836324   ti_sdo_ipc_Ipc_procSync__C
00836328   ti_sdo_ipc_Ipc_userFxns__C
0083632c   ti_sdo_ipc_ListMP_Module__diagsEnabled__C
00836330   ti_sdo_ipc_ListMP_Module__diagsIncluded__C
00836334   ti_sdo_ipc_ListMP_Module__diagsMask__C
00836338   ti_sdo_ipc_MessageQ_A_invalidMsg__C
0083633c   ti_sdo_ipc_MessageQ_A_invalidObj__C
00836340   ti_sdo_ipc_MessageQ_A_invalidQueueId__C
00836344   ti_sdo_ipc_MessageQ_A_procIdInvalid__C
00836348   ti_sdo_ipc_MessageQ_A_unregisteredTransport__C
0083634c   ti_sdo_ipc_MessageQ_Instance_State_highList__O
00836350   ti_sdo_ipc_MessageQ_Instance_State_normalList__O
00836354   ti_sdo_ipc_MessageQ_LM_putLocal__C
00836358   ti_sdo_ipc_MessageQ_Module__diagsEnabled__C
0083635c   ti_sdo_ipc_MessageQ_Module__diagsIncluded__C
00836360   ti_sdo_ipc_MessageQ_Module__diagsMask__C
00836364   ti_sdo_ipc_MessageQ_Module__loggerFxn4__C
00836368   ti_sdo_ipc_MessageQ_Module__loggerObj__C
0083636c   ti_sdo_ipc_MessageQ_Object__count__C
00836370   ti_sdo_ipc_Notify_A_alreadyRegistered__C
00836374   ti_sdo_ipc_Notify_A_internal__C
00836378   ti_sdo_ipc_Notify_A_invArgument__C
0083637c   ti_sdo_ipc_Notify_A_notRegistered__C
00836380   ti_sdo_ipc_Notify_A_reservedEvent__C
00836384   ti_sdo_ipc_Notify_Module__diagsEnabled__C
00836388   ti_sdo_ipc_Notify_Module__diagsIncluded__C
0083638c   ti_sdo_ipc_Notify_Module__diagsMask__C
00836390   ti_sdo_ipc_Notify_Module__gateObj__C
00836394   ti_sdo_ipc_Notify_Object__heap__C
00836398   ti_sdo_ipc_Notify_numEvents__C
0083639c   ti_sdo_ipc_Notify_sendEventPollCount__C
008363a0   ti_sdo_ipc_SharedRegion_A_addrOutOfRange__C
008363a4   ti_sdo_ipc_SharedRegion_A_idTooLarge__C
008363a8   ti_sdo_ipc_SharedRegion_A_noHeap__C
008363ac   ti_sdo_ipc_SharedRegion_A_region0Invalid__C
008363b0   ti_sdo_ipc_SharedRegion_A_regionInvalid__C
008363b4   ti_sdo_ipc_SharedRegion_A_reserveTooMuch__C
008363b8   ti_sdo_ipc_SharedRegion_INVALIDSRPTR__C
008363bc   ti_sdo_ipc_SharedRegion_Module__diagsEnabled__C
008363c0   ti_sdo_ipc_SharedRegion_Module__diagsIncluded__C
008363c4   ti_sdo_ipc_SharedRegion_Module__diagsMask__C
008363c8   ti_sdo_ipc_SharedRegion_cacheLineSize__C
008363cc   ti_sdo_ipc_SharedRegion_numOffsetBits__C
008363d0   ti_sdo_ipc_SharedRegion_offsetMask__C
008363d4   ti_sdo_ipc_family_c647x_Interrupt_INTERDSPINT__C
008363d8   ti_sdo_ipc_family_c647x_Interrupt_IPCAR0__C
008363dc   ti_sdo_ipc_family_c647x_Interrupt_IPCGR0__C
008363e0   ti_sdo_ipc_family_c647x_Interrupt_KICK0__C
008363e4   ti_sdo_ipc_family_c647x_Interrupt_KICK1__C
008363e8   ti_sdo_ipc_family_c647x_MultiProcSetup_A_invalidProcessor__C
008363ec   ti_sdo_ipc_family_c647x_MultiProcSetup_Module__diagsEnabled__C
008363f0   ti_sdo_ipc_family_c647x_MultiProcSetup_Module__diagsIncluded__C
008363f4   ti_sdo_ipc_family_c647x_MultiProcSetup_Module__diagsMask__C
008363f8   ti_sdo_ipc_family_c647x_MultiProcSetup_procMap__C
008363fc   ti_sdo_ipc_family_c647x_NotifySetup_dspIntVectId__C
00836400   ti_sdo_ipc_gates_GateHWSem_A_invSemNum__C
00836404   ti_sdo_ipc_gates_GateHWSem_Module__diagsEnabled__C
00836408   ti_sdo_ipc_gates_GateHWSem_Module__diagsIncluded__C
0083640c   ti_sdo_ipc_gates_GateHWSem_Module__diagsMask__C
00836410   ti_sdo_ipc_gates_GateHWSem_baseAddr__C
00836414   ti_sdo_ipc_gates_GateHWSem_numSems__C
00836418   ti_sdo_ipc_gates_GateHWSem_reservedMaskArr__C
0083641c   ti_sdo_ipc_gates_GateMPSupportNull_A_invalidAction__C
00836420   ti_sdo_ipc_gates_GateHWSem_reservedMaskArr__A
00836424   ti_sdo_ipc_gates_GateMPSupportNull_Module__diagsEnabled__C
00836428   ti_sdo_ipc_gates_GateMPSupportNull_Module__diagsIncluded__C
0083642c   ti_sdo_ipc_gates_GateMPSupportNull_Module__diagsMask__C
00836430   ti_sdo_ipc_gates_GateMPSupportNull_action__C
00836434   ti_sdo_ipc_gates_GatePeterson_E_gateRemotelyOpened__C
00836438   ti_sdo_ipc_gates_GatePeterson_Module__diagsEnabled__C
0083643c   ti_sdo_ipc_gates_GatePeterson_Module__diagsIncluded__C
00836440   ti_sdo_ipc_gates_GatePeterson_Module__diagsMask__C
00836444   ti_sdo_ipc_gates_GatePeterson_numInstances__C
00836448   ti_sdo_ipc_heaps_HeapMemMP_A_align__C
0083644c   ti_sdo_ipc_heaps_HeapMemMP_A_heapSize__C
00836450   ti_sdo_ipc_heaps_HeapMemMP_A_invalidFree__C
00836454   ti_sdo_ipc_heaps_HeapMemMP_A_zeroBlock__C
00836458   ti_sdo_ipc_heaps_HeapMemMP_E_memory__C
0083645c   ti_sdo_ipc_heaps_HeapMemMP_Module__diagsEnabled__C
00836460   ti_sdo_ipc_heaps_HeapMemMP_Module__diagsIncluded__C
00836464   ti_sdo_ipc_heaps_HeapMemMP_Module__diagsMask__C
00836468   ti_sdo_ipc_interfaces_IGateMPSupport_Interface__BASE__C
0083646c   ti_sdo_ipc_interfaces_IMessageQTransport_Interface__BASE__C
00836470   ti_sdo_ipc_interfaces_INotifyDriver_Interface__BASE__C
00836474   ti_sdo_ipc_notifyDrivers_NotifyDriverShm_Module__diagsEnabled__C
00836478   ti_sdo_ipc_notifyDrivers_NotifyDriverShm_Module__diagsIncluded__C
0083647c   ti_sdo_ipc_notifyDrivers_NotifyDriverShm_Module__diagsMask__C
00836480   ti_sdo_ipc_notifyDrivers_NotifyDriverShm_Object__heap__C
00836484   ti_sdo_ipc_nsremote_NameServerRemoteNotify_A_invalidValueLen__C
00836488   ti_sdo_ipc_nsremote_NameServerRemoteNotify_Instance_State_semMultiBlock__O
0083648c   ti_sdo_ipc_nsremote_NameServerRemoteNotify_Instance_State_semRemoteWait__O
00836490   ti_sdo_ipc_nsremote_NameServerRemoteNotify_Instance_State_swiObj__O
00836494   ti_sdo_ipc_nsremote_NameServerRemoteNotify_Module__diagsEnabled__C
00836498   ti_sdo_ipc_nsremote_NameServerRemoteNotify_Module__diagsIncluded__C
0083649c   ti_sdo_ipc_nsremote_NameServerRemoteNotify_Module__diagsMask__C
008364a0   ti_sdo_ipc_nsremote_NameServerRemoteNotify_notifyEventId__C
008364a4   ti_sdo_ipc_nsremote_NameServerRemoteNotify_timeout__C
008364a8   ti_sdo_ipc_transports_TransportShmSetup_priority__C
008364ac   ti_sdo_ipc_transports_TransportShm_Instance_State_swiObj__O
008364b0   ti_sdo_ipc_transports_TransportShm_Module__diagsEnabled__C
008364b4   ti_sdo_ipc_transports_TransportShm_Module__diagsIncluded__C
008364b8   ti_sdo_ipc_transports_TransportShm_Module__diagsMask__C
008364bc   ti_sdo_utils_INameServerRemote_Interface__BASE__C
008364c0   ti_sdo_utils_MultiProc_A_invalidMultiProcId__C
008364c4   ti_sdo_utils_MultiProc_Module__diagsEnabled__C
008364c8   ti_sdo_utils_MultiProc_Module__diagsIncluded__C
008364cc   ti_sdo_utils_MultiProc_Module__diagsMask__C
008364d0   ti_sdo_utils_MultiProc_procIdList__C
008364d4   ti_sdo_utils_NameServer_A_invArgument__C
008364d8   ti_sdo_utils_NameServer_A_invalidLen__C
008364dc   ti_sdo_utils_NameServer_E_entryExists__C
008364e0   ti_sdo_utils_NameServer_E_maxReached__C
008364e4   ti_sdo_utils_NameServer_Instance_State_freeList__O
008364e8   ti_sdo_utils_NameServer_Instance_State_nameList__O
008364ec   ti_sdo_utils_NameServer_Module__diagsEnabled__C
008364f0   ti_sdo_utils_NameServer_Module__diagsIncluded__C
008364f4   ti_sdo_utils_NameServer_Module__diagsMask__C
008364f8   ti_sdo_utils_NameServer_Object__count__C
008364fc   ti_sysbios_BIOS_Module__diagsEnabled__C
00836500   ti_sysbios_BIOS_Module__diagsIncluded__C
00836504   ti_sysbios_BIOS_Module__diagsMask__C
00836508   ti_sysbios_BIOS_installedErrorHook__C
0083650c   ti_sysbios_family_c64p_Exception_E_exceptionMin__C
00836510   ti_sysbios_family_c64p_Exception_exceptionHook__C
00836514   ti_sysbios_family_c64p_Exception_externalHook__C
00836518   ti_sysbios_family_c64p_Exception_internalHook__C
0083651c   ti_sysbios_family_c64p_Exception_nmiHook__C
00836520   ti_sysbios_family_c64p_Hwi_E_alreadyDefined__C
00836524   ti_sysbios_family_c64p_Hwi_E_handleNotFound__C
00836528   ti_sysbios_family_c64p_Hwi_LD_end__C
0083652c   ti_sysbios_family_c64p_Hwi_LM_begin__C
00836530   ti_sysbios_family_c64p_Hwi_Module__diagsEnabled__C
00836534   ti_sysbios_family_c64p_Hwi_Module__diagsIncluded__C
00836538   ti_sysbios_family_c64p_Hwi_Module__diagsMask__C
0083653c   ti_sysbios_family_c64p_Hwi_Module__loggerFxn1__C
00836540   ti_sysbios_family_c64p_Hwi_Module__loggerFxn8__C
00836544   ti_sysbios_family_c64p_Hwi_Module__loggerObj__C
00836548   ti_sysbios_family_c66_Cache_atomicBlockSize__C
0083654c   ti_sysbios_gates_GateMutexPri_A_badContext__C
00836550   ti_sysbios_gates_GateMutexPri_Instance_State_pendQ__O
00836554   ti_sysbios_gates_GateMutexPri_Module__diagsEnabled__C
00836558   ti_sysbios_gates_GateMutexPri_Module__diagsIncluded__C
0083655c   ti_sysbios_gates_GateMutexPri_Module__diagsMask__C
00836560   ti_sysbios_gates_GateMutex_A_badContext__C
00836564   ti_sysbios_gates_GateMutex_Instance_State_sem__O
00836568   ti_sysbios_gates_GateMutex_Module__diagsEnabled__C
0083656c   ti_sysbios_gates_GateMutex_Module__diagsIncluded__C
00836570   ti_sysbios_gates_GateMutex_Module__diagsMask__C
00836574   ti_sysbios_gates_GateSwi_A_badContext__C
00836578   ti_sysbios_gates_GateSwi_Module__diagsEnabled__C
0083657c   ti_sysbios_gates_GateSwi_Module__diagsIncluded__C
00836580   ti_sysbios_gates_GateSwi_Module__diagsMask__C
00836584   ti_sysbios_hal_Hwi_E_stackOverflow__C
00836588   ti_sysbios_heaps_HeapMem_A_align__C
0083658c   ti_sysbios_heaps_HeapMem_A_heapSize__C
00836590   ti_sysbios_heaps_HeapMem_A_invalidFree__C
00836594   ti_sysbios_heaps_HeapMem_A_zeroBlock__C
00836598   ti_sysbios_heaps_HeapMem_E_memory__C
0083659c   ti_sysbios_heaps_HeapMem_Module__diagsEnabled__C
008365a0   ti_sysbios_heaps_HeapMem_Module__diagsIncluded__C
008365a4   ti_sysbios_heaps_HeapMem_Module__diagsMask__C
008365a8   ti_sysbios_heaps_HeapMem_Module__gateObj__C
008365ac   ti_sysbios_heaps_HeapMem_Object__count__C
008365b0   ti_sysbios_heaps_HeapMem_reqAlignMask__C
008365b4   ti_sysbios_heaps_HeapMem_reqAlign__C
008365b8   ti_sysbios_knl_Clock_A_badThreadType__C
008365bc   ti_sysbios_knl_Clock_LM_begin__C
008365c0   ti_sysbios_knl_Clock_LM_tick__C
008365c4   ti_sysbios_knl_Clock_LW_delayed__C
008365c8   ti_sysbios_knl_Clock_Module_State_clockQ__O
008365cc   ti_sysbios_knl_Clock_Module__diagsEnabled__C
008365d0   ti_sysbios_knl_Clock_Module__diagsIncluded__C
008365d4   ti_sysbios_knl_Clock_Module__diagsMask__C
008365d8   ti_sysbios_knl_Clock_Module__loggerFxn1__C
008365dc   ti_sysbios_knl_Clock_Module__loggerFxn2__C
008365e0   ti_sysbios_knl_Clock_Module__loggerObj__C
008365e4   ti_sysbios_knl_Clock_tickMode__C
008365e8   ti_sysbios_knl_Clock_tickSource__C
008365ec   ti_sysbios_knl_Semaphore_A_badContext__C
008365f0   ti_sysbios_knl_Idle_funcList__A
008365f4   ti_sysbios_knl_Semaphore_A_noEvents__C
008365f8   ti_sysbios_knl_Semaphore_A_overflow__C
008365fc   ti_sysbios_knl_Semaphore_Instance_State_pendQ__O
00836600   ti_sysbios_knl_Semaphore_LM_pend__C
00836604   ti_sysbios_knl_Semaphore_LM_post__C
00836608   ti_sysbios_knl_Semaphore_Module__diagsEnabled__C
0083660c   ti_sysbios_knl_Semaphore_Module__diagsIncluded__C
00836610   ti_sysbios_knl_Semaphore_Module__diagsMask__C
00836614   ti_sysbios_knl_Semaphore_Module__loggerFxn2__C
00836618   ti_sysbios_knl_Semaphore_Module__loggerFxn4__C
0083661c   ti_sysbios_knl_Semaphore_Module__loggerObj__C
00836620   ti_sysbios_knl_Swi_A_badPriority__C
00836624   ti_sysbios_knl_Swi_LD_end__C
00836628   ti_sysbios_knl_Swi_LM_begin__C
0083662c   ti_sysbios_knl_Swi_LM_post__C
00836630   ti_sysbios_knl_Swi_Module__diagsEnabled__C
00836634   ti_sysbios_knl_Swi_Module__diagsIncluded__C
00836638   ti_sysbios_knl_Swi_Module__diagsMask__C
0083663c   ti_sysbios_knl_Swi_Module__loggerFxn1__C
00836640   ti_sysbios_knl_Swi_Module__loggerFxn4__C
00836644   ti_sysbios_knl_Swi_Module__loggerObj__C
00836648   ti_sysbios_knl_Swi_Object__count__C
0083664c   ti_sysbios_knl_Task_A_badPriority__C
00836650   ti_sysbios_knl_Task_A_badTimeout__C
00836654   ti_sysbios_knl_Task_E_spOutOfBounds__C
00836658   ti_sysbios_knl_Task_E_stackOverflow__C
0083665c   ti_sysbios_knl_Task_LD_block__C
00836660   ti_sysbios_knl_Task_LD_exit__C
00836664   ti_sysbios_knl_Task_LD_ready__C
00836668   ti_sysbios_knl_Task_LM_setPri__C
0083666c   ti_sysbios_knl_Task_LM_sleep__C
00836670   ti_sysbios_knl_Task_LM_switch__C
00836674   ti_sysbios_knl_Task_LM_yield__C
00836678   ti_sysbios_knl_Task_Module_State_inactiveQ__O
0083667c   ti_sysbios_knl_Task_Module_State_terminatedQ__O
00836680   ti_sysbios_knl_Task_Module__diagsEnabled__C
00836684   ti_sysbios_knl_Task_Module__diagsIncluded__C
00836688   ti_sysbios_knl_Task_Module__diagsMask__C
0083668c   ti_sysbios_knl_Task_Module__loggerFxn2__C
00836690   ti_sysbios_knl_Task_Module__loggerFxn4__C
00836694   ti_sysbios_knl_Task_Module__loggerObj__C
00836698   ti_sysbios_knl_Task_Object__count__C
0083669c   ti_sysbios_knl_Task_allBlockedFunc__C
008366a0   ti_sysbios_knl_Task_numConstructedTasks__C
008366a4   ti_sysbios_knl_Task_numPriorities__C
008366a8   ti_sysbios_timers_timer64_Timer_A_notAvailable__C
008366ac   ti_sysbios_timers_timer64_Timer_E_cannotSupport__C
008366b0   ti_sysbios_timers_timer64_Timer_Module__diagsEnabled__C
008366b4   ti_sysbios_timers_timer64_Timer_Module__diagsIncluded__C
008366b8   ti_sysbios_timers_timer64_Timer_Module__diagsMask__C
008366bc   ti_sysbios_timers_timer64_Timer_anyMask__C
008366c0   ti_sysbios_timers_timer64_Timer_freqDivisor__C
008366c4   ti_sysbios_timers_timer64_Timer_numLocalTimers__C
008366c8   ti_sysbios_timers_timer64_Timer_numTimerDevices__C
008366cc   ti_sysbios_xdcruntime_GateThreadSupport_Instance_State_gate__O
008366d0   xdc_runtime_Assert_E_assertFailed__C
008366d4   xdc_runtime_Core_A_initializedParams__C
008366d8   xdc_runtime_Core_Module__diagsEnabled__C
008366dc   xdc_runtime_Core_Module__diagsIncluded__C
008366e0   xdc_runtime_Core_Module__diagsMask__C
008366e4   xdc_runtime_Error_E_generic__C
008366e8   xdc_runtime_Error_E_memory__C
008366ec   xdc_runtime_Error_Module__diagsEnabled__C
008366f0   xdc_runtime_Error_Module__diagsIncluded__C
008366f4   xdc_runtime_Error_Module__diagsMask__C
008366f8   xdc_runtime_Error_Module__loggerFxn8__C
008366fc   xdc_runtime_Error_Module__loggerObj__C
00836700   xdc_runtime_Error_policy__C
00836704   xdc_runtime_Error_raiseHook__C
00836708   xdc_runtime_IGateProvider_Interface__BASE__C
0083670c   xdc_runtime_IHeap_Interface__BASE__C
00836710   xdc_runtime_IModule_Interface__BASE__C
00836714   xdc_runtime_Log_L_error__C
00836718   xdc_runtime_Memory_defaultHeapInstance__C
0083671c   xdc_runtime_Startup_execImpl__C
00836720   xdc_runtime_Startup_lastFxns__A
00836724   xdc_runtime_Startup_maxPasses__C
00836728   xdc_runtime_Startup_sfxnRts__C
0083672c   xdc_runtime_Startup_sfxnTab__C
00836730   xdc_runtime_System_Module__gateObj__C
00836734   xdc_runtime_System_extendFxn__C
00836738   xdc_runtime_System_maxAtexitHandlers__C
0083673c   xdc_runtime_Text_charTab__C
00836740   xdc_runtime_Text_nameEmpty__C
00836744   xdc_runtime_Text_nameStatic__C
00836748   xdc_runtime_Text_nameUnknown__C
0083674c   xdc_runtime_Text_nodeTab__C
00836750   xdc_runtime_Text_visitRopeFxn__C
00836754   ti_sdo_ipc_GateMP_Module__id__C
00836758   ti_sdo_ipc_GateMP_Module__loggerDefined__C
0083675c   ti_sdo_ipc_Ipc_Module__id__C
00836760   ti_sdo_ipc_Ipc_generateSlaveDataForHost__C
00836764   ti_sdo_ipc_ListMP_Module__id__C
00836768   ti_sdo_ipc_MessageQ_Module__id__C
0083676c   ti_sdo_ipc_MessageQ_Module__loggerDefined__C
00836770   ti_sdo_ipc_Notify_Module__id__C
00836774   ti_sdo_ipc_Notify_numLines__C
00836778   ti_sdo_ipc_Notify_reservedEvents__C
0083677c   ti_sdo_ipc_SharedRegion_Module__id__C
00836780   ti_sdo_ipc_SharedRegion_numEntries__C
00836784   ti_sdo_ipc_SharedRegion_translate__C
00836788   ti_sdo_ipc_family_c647x_Interrupt_enableKick__C
0083678c   ti_sdo_ipc_family_c647x_MultiProcSetup_Module__id__C
00836790   ti_sdo_ipc_gates_GateHWSem_Module__id__C
00836794   ti_sdo_ipc_gates_GateMPSupportNull_Module__id__C
00836798   ti_sdo_ipc_gates_GatePeterson_Module__id__C
0083679c   ti_sdo_ipc_heaps_HeapMemMP_Module__id__C
008367a0   ti_sdo_ipc_notifyDrivers_NotifyDriverShm_Module__id__C
008367a4   ti_sdo_ipc_nsremote_NameServerRemoteNotify_Module__id__C
008367a8   ti_sdo_ipc_transports_TransportShm_Module__id__C
008367ac   ti_sdo_ipc_transports_TransportShm_notifyEventId__C
008367b0   ti_sdo_utils_MultiProc_Module__id__C
008367b4   ti_sdo_utils_MultiProc_numProcessors__C
008367b8   ti_sdo_utils_MultiProc_numProcsInCluster__C
008367bc   ti_sdo_utils_NameServer_Module__id__C
008367c0   ti_sdo_utils_NameServer_singleProcessor__C
008367c4   ti_sysbios_BIOS_Module__id__C
008367c8   ti_sysbios_family_c64p_Exception_Module__id__C
008367cc   ti_sysbios_family_c64p_Hwi_Module__id__C
008367d0   ti_sysbios_family_c64p_Hwi_Module__loggerDefined__C
008367d4   ti_sysbios_gates_GateMutexPri_Module__id__C
008367d8   ti_sysbios_gates_GateMutex_Module__id__C
008367dc   ti_sysbios_gates_GateSwi_Module__id__C
008367e0   ti_sysbios_hal_Hwi_Module__id__C
008367e4   ti_sysbios_heaps_HeapMem_Module__id__C
008367e8   ti_sysbios_knl_Clock_Module__id__C
008367ec   ti_sysbios_knl_Clock_Module__loggerDefined__C
008367f0   ti_sysbios_knl_Semaphore_Module__id__C
008367f4   ti_sysbios_knl_Semaphore_Module__loggerDefined__C
008367f8   ti_sysbios_knl_Swi_Module__id__C
008367fc   ti_sysbios_knl_Swi_Module__loggerDefined__C
00836800   ti_sysbios_knl_Task_Module__id__C
00836804   ti_sysbios_knl_Task_Module__loggerDefined__C
00836808   ti_sysbios_knl_Task_deleteTerminatedTasks__C
0083680c   ti_sysbios_knl_Task_initStackFlag__C
00836810   ti_sysbios_timers_timer64_Timer_Module__id__C
00836814   ti_sysbios_timers_timer64_Timer_startupNeeded__C
00836818   xdc_runtime_Core_Module__id__C
0083681c   xdc_runtime_Error_Module__loggerDefined__C
00836820   xdc_runtime_Error_maxDepth__C
00836824   xdc_runtime_Memory_Module__id__C
00836828   xdc_runtime_Text_charCnt__C
0083682c   xdc_runtime_Text_isLoaded__C
00836830   xdc_runtime_Text_registryModsLastId__C
00836834   xdc_runtime_Text_unnamedModsLastId__C
00836840   ti_sdo_ipc_GateMP_Module_State_0_remoteCustom1Gates__A
00837040   ti_sdo_ipc_GateMP_Module__root__V
00837048   ti_sdo_ipc_GateMP_Module__state__V
00837090   ti_sdo_ipc_Ipc_Module__state__V
0083709c   ti_sdo_ipc_ListMP_Module__root__V
008370a4   ti_sdo_ipc_ListMP_Module__state__V
008370a8   ti_sdo_ipc_MessageQ_Module__root__V
008370b0   ti_sdo_ipc_MessageQ_Module__state__V
008370cc   ti_sdo_ipc_Notify_Module__root__V
008370d4   ti_sdo_ipc_Notify_Module__state__V
008370dc   ti_sdo_ipc_SharedRegion_Module__state__V
008370e0   ti_sdo_ipc_family_c647x_Interrupt_Module__state__V
008370e8   ti_sdo_ipc_gates_GateHWSem_Module__root__V
008370f0   ti_sdo_ipc_gates_GateMPSupportNull_Module__root__V
008370f8   ti_sdo_ipc_gates_GatePeterson_Module__root__V
00837100   ti_sdo_ipc_heaps_HeapBufMP_Module__root__V
00837108   ti_sdo_ipc_heaps_HeapBufMP_Module__state__V
0083710c   ti_sdo_ipc_heaps_HeapMemMP_Module__root__V
00837114   ti_sdo_ipc_heaps_HeapMemMP_Module__state__V
00837118   ti_sdo_ipc_notifyDrivers_NotifyDriverShm_Module__root__V
00837120   ti_sdo_ipc_nsremote_NameServerRemoteNotify_Module__root__V
00837128   ti_sdo_ipc_transports_TransportShm_Module__root__V
00837130   ti_sdo_ipc_transports_TransportShmSetup_Module__state__V
00837134   ti_sdo_utils_List_Module__root__V
0083713c   ti_sdo_utils_MultiProc_Module__state__V
00837140   ti_sdo_utils_NameServer_Module__root__V
00837148   ti_sdo_utils_NameServer_Module__state__V
00837150   ti_sdo_utils_NameServerRemoteNull_Module__root__V
00837158   ti_sysbios_BIOS_Module__state__V
00837174   ti_sysbios_family_c64p_Exception_Module__state__V
008371a0   ti_sysbios_family_c64p_Hwi_Module__root__V
008371a8   ti_sysbios_family_c64p_Hwi_Module__state__V
00837210   ti_sysbios_gates_GateAll_Module__root__V
00837218   ti_sysbios_gates_GateHwi_Module__root__V
00837220   ti_sysbios_gates_GateMutex_Module__root__V
00837228   ti_sysbios_gates_GateMutexPri_Module__root__V
00837230   ti_sysbios_gates_GateSwi_Module__root__V
00837238   ti_sysbios_hal_Hwi_Module__root__V
00837240   ti_sysbios_hal_Timer_Module__root__V
00837248   ti_sysbios_heaps_HeapMem_Module__root__V
00837250   ti_sysbios_knl_Clock_Module__root__V
00837258   ti_sysbios_knl_Clock_Module__state__V
00837284   ti_sysbios_knl_Queue_Module__root__V
0083728c   ti_sysbios_knl_Semaphore_Module__root__V
00837294   ti_sysbios_knl_Swi_Module__root__V
0083729c   ti_sysbios_knl_Swi_Module__state__V
008372b8   ti_sysbios_knl_Task_Module__root__V
008372c0   ti_sysbios_knl_Task_Module__state__V
008372f4   ti_sysbios_syncs_SyncSem_Module__root__V
008372fc   ti_sysbios_timers_timer64_Timer_Module__root__V
00837304   ti_sysbios_timers_timer64_Timer_Module__state__V
00837318   ti_sysbios_xdcruntime_GateThreadSupport_Module__root__V
00837320   xdc_runtime_Error_Module__state__V
00837324   xdc_runtime_GateNull_Module__root__V
0083732c   xdc_runtime_Memory_Module__state__V
00837330   xdc_runtime_Registry_Module__state__V
00837338   xdc_runtime_Startup_Module__state__V
00837340   xdc_runtime_System_Module__state__V
0083734c   xdc_runtime_Text_Module__state__V
00837354   xdc_runtime_knl_GateThread_Module__root__V
0083735c   __xdc__init__addr
00837360   _ftable
00837540   ti_sysbios_timers_timer64_Timer_Module_State_0_device__A
008376c0   ti_sdo_utils_NameServer_Object__table__V
008377d8   _lock
008377dc   _unlock
00837880   ti_sdo_ipc_Ipc_Module_State_0_procEntry__A
00837920   ti_sdo_ipc_SharedRegion_Module_State_0_regions__A
008379b0   ti_sysbios_knl_Task_Object__table__V
008379f4   TSK_idle
00837a38   _ft_end
00837a40   ti_sdo_ipc_GateMP_Module_State_0_remoteSystemGates__A
00837ac0   ti_sysbios_knl_Swi_Module_State_0_readyQ__A
00837b40   ti_sysbios_knl_Task_Module_State_0_readyQ__A
00837bc0   ti_sysbios_timers_timer64_Timer_Module_State_0_gctrl__A
00837c40   ti_sysbios_timers_timer64_Timer_Module_State_0_handles__A
00837cc0   ti_sysbios_timers_timer64_Timer_Module_State_0_intFreqs__A
00837dc0   ti_sysbios_timers_timer64_Timer_Object__table__V
00837e10   ti_sdo_ipc_MessageQ_Module_State_0_transports__A
00837e50   ti_sdo_ipc_family_c647x_Interrupt_Module_State_0_fxnTable__A
00837e90   ti_sysbios_gates_GateMutex_Object__table__V
00837ed0   ti_sysbios_knl_Swi_Object__table__V
00837f00   ti_sdo_ipc_MessageQ_Module_State_0_heaps__A
00837f20   ti_sdo_ipc_Notify_Module_State_0_notifyHandles__A
00837f40   ti_sdo_ipc_transports_TransportShmSetup_Module_State_0_handles__A
00837f60   xdc_runtime_System_Module_State_0_atexitHandlers__A
00837f80   ti_sysbios_family_c64p_Hwi_Object__table__V
00837fa0   ti_sysbios_gates_GateMutexPri_Object__table__V
00837fc0   ti_sysbios_heaps_HeapMem_Object__table__V
00837fd4   _cleanup_ptr
00837fd8   _dtors_ptr
00837fdc   __TI_enable_exit_profile_output
00837fe0   ti_sysbios_gates_GateAll_Object__table__V
00837ff0   ti_sysbios_gates_GateSwi_Object__table__V
00838000   ti_sysbios_hal_Hwi_Object__table__V
00838010   ti_sysbios_hal_Timer_Object__table__V
00838020   ti_sdo_ipc_GateMP_Module_State_0_remoteCustom2Gates__A
00838030   ti_sdo_ipc_Notify_Module_State_0_notifyHandles_0__A
00838040   ti_sdo_ipc_Notify_Module_State_0_notifyHandles_1__A
00838050   ti_sdo_ipc_Notify_Module_State_0_notifyHandles_2__A
00838060   ti_sdo_ipc_Notify_Module_State_0_notifyHandles_3__A
00838070   ti_sdo_ipc_Notify_Module_State_0_notifyHandles_4__A
00838080   ti_sdo_ipc_Notify_Module_State_0_notifyHandles_5__A
00838090   ti_sdo_ipc_Notify_Module_State_0_notifyHandles_6__A
008380a0   ti_sdo_ipc_Notify_Module_State_0_notifyHandles_7__A
008380b0   ti_sysbios_gates_GateHwi_Object__table__V
008380c0   xdc_runtime_GateNull_Object__table__V
008380c8   _stack
008390c8   __CIOBUF_
008390c8   __TI_STACK_END
008391e8   Ipc_sr0MemorySetup
008391ec   __TI_STATIC_BASE
008391ec   nbSemaphoresToClean
008391f0   addMatrices_6__implode_displ__0
008391f4   explode_generateMatrices_arr__9
008391f8   explode_generateMatrices_arr__0
008391fc   explode_generateMatrices_arr__11
00839200   explode_generateMatrices_arr__13
00839204   addMatrices_3__implode_displ__0
00839208   explode_generateMatrices_arr__12
0083920c   generateMatrices__explode_ge__0
00839210   implode_displayMatrices_arra__0
00839214   explode_generateMatrices_arr__14
00839218   addMatrices_4__implode_displ__0
0083921c   generateMatrices__displayMat__0
00839220   addMatrices_0__implode_displ__0
00839224   explode_generateMatrices_arr__15
00839228   generateMatrices__explode_ge__1
0083922c   explode_generateMatrices_arr__3
00839230   explode_generateMatrices_arr__7
00839234   explode_generateMatrices_arr__4
00839238   explode_generateMatrices_arr__5
0083923c   addMatrices_1__implode_displ__0
00839240   explode_generateMatrices_arr__6
00839244   addMatrices_5__implode_displ__0
00839248   explode_generateMatrices_arr__8
0083924c   explode_generateMatrices_arr__2
00839250   addMatrices_2__implode_displ__0
00839254   explode_generateMatrices_arr__1
00839258   addMatrices_7__implode_displ__0
0083925c   explode_generateMatrices_arr__10
00839260   arrayB_58720256__arrayB__0
00839264   startTime__startTime__0
00839268   arrayB__arrayB__0
0083926c   arrayC__arrayC_0__0
00839270   arrayC__arrayC_58720256__0
00839274   arrayC__arrayC__0
00839278   arrayB_50331648__arrayB__0
0083927c   arrayC__arrayC_41943040__0
00839280   arrayC__arrayC_50331648__0
00839284   arrayA_16777216__arrayA__0
00839288   arrayA_50331648__arrayA__0
0083928c   arrayC__arrayC_25165824__0
00839290   arrayA_58720256__arrayA__0
00839294   arrayB_25165824__arrayB__0
00839298   arrayB_0__arrayB__0
0083929c   arrayA_25165824__arrayA__0
008392a0   arrayB_33554432__arrayB__0
008392a4   arrayC__arrayC_16777216__0
008392a8   arrayC__arrayC_8388608__0
008392ac   arrayC__arrayC_33554432__0
008392b0   arrayA_0__arrayA__0
008392b4   arrayB_8388608__arrayB__0
008392b8   arrayB_16777216__arrayB__0
008392bc   arrayB_41943040__arrayB__0
008392c0   arrayA_8388608__arrayA__0
008392c4   arrayA_33554432__arrayA__0
008392c8   arrayA__arrayA__0
008392cc   arrayA_41943040__arrayA__0
00839400   ti_sysbios_family_c64p_Hwi0
00839420   ti_sysbios_family_c64p_Hwi1
00839440   ti_sysbios_family_c64p_Hwi2
00839460   ti_sysbios_family_c64p_Hwi3
00839480   ti_sysbios_family_c64p_Hwi4
008394a0   ti_sysbios_family_c64p_Hwi5
008394c0   ti_sysbios_family_c64p_Hwi6
008394e0   ti_sysbios_family_c64p_Hwi7
00839500   ti_sysbios_family_c64p_Hwi8
00839520   ti_sysbios_family_c64p_Hwi9
00839540   ti_sysbios_family_c64p_Hwi10
00839560   ti_sysbios_family_c64p_Hwi11
00839580   ti_sysbios_family_c64p_Hwi12
008395a0   ti_sysbios_family_c64p_Hwi13
008395c0   ti_sysbios_family_c64p_Hwi14
008395e0   ti_sysbios_family_c64p_Hwi15
00839f54   __TI_Handler_Table_Base
00839f60   __TI_Handler_Table_Limit
0083a020   __TI_CINIT_Base
0083a0e0   __TI_CINIT_Limit
0c0ffffc   barrier
80000000   SharedMem
ffffffff   __TI_pprof_out_hndl
ffffffff   __TI_prof_data_size
ffffffff   __TI_prof_data_start
ffffffff   __binit__
ffffffff   __c_args__
ffffffff   binit

[1369 symbols]
